
.pio/build/fs2011-gd32f150c8/firmware.elf:     file format elf32-littlearm


Disassembly of section .isr_vector:

08000000 <g_pfnVectors>:
 8000000:	20002000 	andcs	r2, r0, r0
 8000004:	080005d1 	stmdaeq	r0, {r0, r4, r6, r7, r8, sl}
 8000008:	08000621 	stmdaeq	r0, {r0, r5, r9, sl}
 800000c:	08000621 	stmdaeq	r0, {r0, r5, r9, sl}
	...
 800002c:	08000621 	stmdaeq	r0, {r0, r5, r9, sl}
	...
 8000038:	08000621 	stmdaeq	r0, {r0, r5, r9, sl}
 800003c:	08004765 	stmdaeq	r0, {r0, r2, r5, r6, r8, r9, sl, lr}
 8000040:	08000621 	stmdaeq	r0, {r0, r5, r9, sl}
 8000044:	08000621 	stmdaeq	r0, {r0, r5, r9, sl}
 8000048:	08000621 	stmdaeq	r0, {r0, r5, r9, sl}
 800004c:	08000621 	stmdaeq	r0, {r0, r5, r9, sl}
 8000050:	08000621 	stmdaeq	r0, {r0, r5, r9, sl}
 8000054:	08000621 	stmdaeq	r0, {r0, r5, r9, sl}
 8000058:	08000621 	stmdaeq	r0, {r0, r5, r9, sl}
 800005c:	08004cb5 	stmdaeq	r0, {r0, r2, r4, r5, r7, sl, fp, lr}
 8000060:	08000621 	stmdaeq	r0, {r0, r5, r9, sl}
 8000064:	08000621 	stmdaeq	r0, {r0, r5, r9, sl}
 8000068:	08000621 	stmdaeq	r0, {r0, r5, r9, sl}
 800006c:	08000621 	stmdaeq	r0, {r0, r5, r9, sl}
 8000070:	08000621 	stmdaeq	r0, {r0, r5, r9, sl}
 8000074:	08000621 	stmdaeq	r0, {r0, r5, r9, sl}
 8000078:	08000621 	stmdaeq	r0, {r0, r5, r9, sl}
 800007c:	08000621 	stmdaeq	r0, {r0, r5, r9, sl}
 8000080:	08000621 	stmdaeq	r0, {r0, r5, r9, sl}
 8000084:	08000621 	stmdaeq	r0, {r0, r5, r9, sl}
 8000088:	00000000 	andeq	r0, r0, r0
 800008c:	08000621 	stmdaeq	r0, {r0, r5, r9, sl}
 8000090:	08000621 	stmdaeq	r0, {r0, r5, r9, sl}
 8000094:	08000621 	stmdaeq	r0, {r0, r5, r9, sl}
 8000098:	08000621 	stmdaeq	r0, {r0, r5, r9, sl}
 800009c:	08000621 	stmdaeq	r0, {r0, r5, r9, sl}
 80000a0:	08000621 	stmdaeq	r0, {r0, r5, r9, sl}
 80000a4:	08000621 	stmdaeq	r0, {r0, r5, r9, sl}
 80000a8:	08000621 	stmdaeq	r0, {r0, r5, r9, sl}
 80000ac:	08000621 	stmdaeq	r0, {r0, r5, r9, sl}
 80000b0:	080045f9 	stmdaeq	r0, {r0, r3, r4, r5, r6, r7, r8, sl, lr}
 80000b4:	00000000 	andeq	r0, r0, r0
 80000b8:	08000621 	stmdaeq	r0, {r0, r5, r9, sl}
 80000bc:	00000000 	andeq	r0, r0, r0

Disassembly of section .text:

080000c0 <__do_global_dtors_aux>:
 80000c0:	b510      	push	{r4, lr}
 80000c2:	4c05      	ldr	r4, [pc, #20]	; (80000d8 <__do_global_dtors_aux+0x18>)
 80000c4:	7823      	ldrb	r3, [r4, #0]
 80000c6:	b933      	cbnz	r3, 80000d6 <__do_global_dtors_aux+0x16>
 80000c8:	4b04      	ldr	r3, [pc, #16]	; (80000dc <__do_global_dtors_aux+0x1c>)
 80000ca:	b113      	cbz	r3, 80000d2 <__do_global_dtors_aux+0x12>
 80000cc:	4804      	ldr	r0, [pc, #16]	; (80000e0 <__do_global_dtors_aux+0x20>)
 80000ce:	f3af 8000 	nop.w
 80000d2:	2301      	movs	r3, #1
 80000d4:	7023      	strb	r3, [r4, #0]
 80000d6:	bd10      	pop	{r4, pc}
 80000d8:	20000070 	andcs	r0, r0, r0, ror r0
 80000dc:	00000000 	andeq	r0, r0, r0
 80000e0:	0800606c 	stmdaeq	r0, {r2, r3, r5, r6, sp, lr}

080000e4 <frame_dummy>:
 80000e4:	b508      	push	{r3, lr}
 80000e6:	4b03      	ldr	r3, [pc, #12]	; (80000f4 <frame_dummy+0x10>)
 80000e8:	b11b      	cbz	r3, 80000f2 <frame_dummy+0xe>
 80000ea:	4903      	ldr	r1, [pc, #12]	; (80000f8 <frame_dummy+0x14>)
 80000ec:	4803      	ldr	r0, [pc, #12]	; (80000fc <frame_dummy+0x18>)
 80000ee:	f3af 8000 	nop.w
 80000f2:	bd08      	pop	{r3, pc}
 80000f4:	00000000 	andeq	r0, r0, r0
 80000f8:	20000074 	andcs	r0, r0, r4, ror r0
 80000fc:	0800606c 	stmdaeq	r0, {r2, r3, r5, r6, sp, lr}

08000100 <xchxy>:
 8000100:	b505      	push	{r0, r2, lr}
 8000102:	4608      	mov	r0, r1
 8000104:	461a      	mov	r2, r3
 8000106:	bd0a      	pop	{r1, r3, pc}

08000108 <unpackxy>:
 8000108:	b500      	push	{lr}
 800010a:	f000 f804 	bl	8000116 <unpackx>
 800010e:	f7ff fff7 	bl	8000100 <xchxy>
 8000112:	bc10      	pop	{r4}
 8000114:	46a6      	mov	lr, r4

08000116 <unpackx>:
 8000116:	0dc2      	lsrs	r2, r0, #23
 8000118:	0240      	lsls	r0, r0, #9
 800011a:	0a40      	lsrs	r0, r0, #9
 800011c:	2401      	movs	r4, #1
 800011e:	05e4      	lsls	r4, r4, #23
 8000120:	4320      	orrs	r0, r4
 8000122:	2aff      	cmp	r2, #255	; 0xff
 8000124:	b2d2      	uxtb	r2, r2
 8000126:	d900      	bls.n	800012a <unpackx+0x14>
 8000128:	4240      	negs	r0, r0
 800012a:	3a01      	subs	r2, #1
 800012c:	2afe      	cmp	r2, #254	; 0xfe
 800012e:	d201      	bcs.n	8000134 <unpackx+0x1e>
 8000130:	3a7e      	subs	r2, #126	; 0x7e
 8000132:	4770      	bx	lr
 8000134:	2800      	cmp	r0, #0
 8000136:	4620      	mov	r0, r4
 8000138:	d500      	bpl.n	800013c <unpackx+0x26>
 800013a:	4240      	negs	r0, r0
 800013c:	3a7e      	subs	r2, #126	; 0x7e
 800013e:	0092      	lsls	r2, r2, #2
 8000140:	3280      	adds	r2, #128	; 0x80
 8000142:	4770      	bx	lr

08000144 <packx>:
 8000144:	0fc4      	lsrs	r4, r0, #31
 8000146:	07e4      	lsls	r4, r4, #31
 8000148:	d504      	bpl.n	8000154 <packx0+0x2>
 800014a:	2d00      	cmp	r5, #0
 800014c:	d000      	beq.n	8000150 <packx+0xc>
 800014e:	3001      	adds	r0, #1
 8000150:	4240      	negs	r0, r0

08000152 <packx0>:
 8000152:	d403      	bmi.n	800015c <packx0+0xa>
 8000154:	3a01      	subs	r2, #1
 8000156:	1800      	adds	r0, r0, r0
 8000158:	d012      	beq.n	8000180 <packx0+0x2e>
 800015a:	d5fb      	bpl.n	8000154 <packx0+0x2>
 800015c:	3281      	adds	r2, #129	; 0x81
 800015e:	d101      	bne.n	8000164 <packx0+0x12>
 8000160:	3080      	adds	r0, #128	; 0x80
 8000162:	d205      	bcs.n	8000170 <packx0+0x1e>
 8000164:	3080      	adds	r0, #128	; 0x80
 8000166:	d203      	bcs.n	8000170 <packx0+0x1e>
 8000168:	2d00      	cmp	r5, #0
 800016a:	d00f      	beq.n	800018c <packx0+0x3a>
 800016c:	0040      	lsls	r0, r0, #1
 800016e:	3a01      	subs	r2, #1
 8000170:	2afe      	cmp	r2, #254	; 0xfe
 8000172:	da06      	bge.n	8000182 <packx0+0x30>
 8000174:	3201      	adds	r2, #1
 8000176:	dd07      	ble.n	8000188 <packx0+0x36>
 8000178:	0a40      	lsrs	r0, r0, #9
 800017a:	05d2      	lsls	r2, r2, #23
 800017c:	4310      	orrs	r0, r2
 800017e:	4320      	orrs	r0, r4
 8000180:	4770      	bx	lr
 8000182:	20ff      	movs	r0, #255	; 0xff
 8000184:	05c0      	lsls	r0, r0, #23
 8000186:	e7fa      	b.n	800017e <packx0+0x2c>
 8000188:	2000      	movs	r0, #0
 800018a:	4770      	bx	lr
 800018c:	0605      	lsls	r5, r0, #24
 800018e:	d1ed      	bne.n	800016c <packx0+0x1a>
 8000190:	0a40      	lsrs	r0, r0, #9
 8000192:	0280      	lsls	r0, r0, #10
 8000194:	e7eb      	b.n	800016e <packx0+0x1c>

08000196 <unpackxyalign>:
 8000196:	b500      	push	{lr}
 8000198:	f7ff ffb6 	bl	8000108 <unpackxy>
 800019c:	0180      	lsls	r0, r0, #6
 800019e:	0189      	lsls	r1, r1, #6
 80001a0:	1ad4      	subs	r4, r2, r3
 80001a2:	da07      	bge.n	80001b4 <unpackxyalign+0x1e>
 80001a4:	461a      	mov	r2, r3
 80001a6:	4605      	mov	r5, r0
 80001a8:	4264      	negs	r4, r4
 80001aa:	4120      	asrs	r0, r4
 80001ac:	2c20      	cmp	r4, #32
 80001ae:	d307      	bcc.n	80001c0 <unpackxyalign+0x2a>
 80001b0:	2000      	movs	r0, #0
 80001b2:	bd00      	pop	{pc}
 80001b4:	460d      	mov	r5, r1
 80001b6:	4121      	asrs	r1, r4
 80001b8:	2c20      	cmp	r4, #32
 80001ba:	d301      	bcc.n	80001c0 <unpackxyalign+0x2a>
 80001bc:	2100      	movs	r1, #0
 80001be:	bd00      	pop	{pc}
 80001c0:	4264      	negs	r4, r4
 80001c2:	3420      	adds	r4, #32
 80001c4:	40a5      	lsls	r5, r4
 80001c6:	bd00      	pop	{pc}

080001c8 <qfp_fsub>:
 80001c8:	2201      	movs	r2, #1
 80001ca:	07d2      	lsls	r2, r2, #31
 80001cc:	4051      	eors	r1, r2

080001ce <qfp_fadd>:
 80001ce:	b530      	push	{r4, r5, lr}
 80001d0:	f7ff ffe1 	bl	8000196 <unpackxyalign>
 80001d4:	1840      	adds	r0, r0, r1
 80001d6:	d103      	bne.n	80001e0 <packret>
 80001d8:	2ac8      	cmp	r2, #200	; 0xc8
 80001da:	db01      	blt.n	80001e0 <packret>
 80001dc:	2001      	movs	r0, #1
 80001de:	0740      	lsls	r0, r0, #29

080001e0 <packret>:
 80001e0:	f7ff ffb0 	bl	8000144 <packx>
 80001e4:	bd30      	pop	{r4, r5, pc}

080001e6 <mul0>:
 80001e6:	b283      	uxth	r3, r0
 80001e8:	140c      	asrs	r4, r1, #16
 80001ea:	4363      	muls	r3, r4
 80001ec:	1404      	asrs	r4, r0, #16
 80001ee:	b28d      	uxth	r5, r1
 80001f0:	436c      	muls	r4, r5
 80001f2:	191b      	adds	r3, r3, r4
 80001f4:	b284      	uxth	r4, r0
 80001f6:	436c      	muls	r4, r5
 80001f8:	0425      	lsls	r5, r4, #16
 80001fa:	0c24      	lsrs	r4, r4, #16
 80001fc:	191b      	adds	r3, r3, r4
 80001fe:	1400      	asrs	r0, r0, #16
 8000200:	1409      	asrs	r1, r1, #16
 8000202:	4348      	muls	r0, r1
 8000204:	02c0      	lsls	r0, r0, #11
 8000206:	06d9      	lsls	r1, r3, #27
 8000208:	430d      	orrs	r5, r1
 800020a:	1159      	asrs	r1, r3, #5
 800020c:	1840      	adds	r0, r0, r1
 800020e:	4770      	bx	lr

08000210 <qfp_fcmp>:
 8000210:	2201      	movs	r2, #1
 8000212:	07d3      	lsls	r3, r2, #31
 8000214:	4218      	tst	r0, r3
 8000216:	d000      	beq.n	800021a <qfp_fcmp+0xa>
 8000218:	1a18      	subs	r0, r3, r0
 800021a:	4219      	tst	r1, r3
 800021c:	d000      	beq.n	8000220 <qfp_fcmp+0x10>
 800021e:	1a59      	subs	r1, r3, r1
 8000220:	1a40      	subs	r0, r0, r1
 8000222:	d002      	beq.n	800022a <qfp_fcmp+0x1a>
 8000224:	dc00      	bgt.n	8000228 <qfp_fcmp+0x18>
 8000226:	4252      	negs	r2, r2
 8000228:	4610      	mov	r0, r2
 800022a:	4770      	bx	lr

0800022c <qfp_fmul>:
 800022c:	b530      	push	{r4, r5, lr}
 800022e:	f7ff ff6b 	bl	8000108 <unpackxy>
 8000232:	441a      	add	r2, r3
 8000234:	3204      	adds	r2, #4

08000236 <fmul0>:
 8000236:	f7ff ffd6 	bl	80001e6 <mul0>
 800023a:	e7d1      	b.n	80001e0 <packret>

0800023c <qfp_fdiv>:
 800023c:	b530      	push	{r4, r5, lr}

0800023e <fdiv_n>:
 800023e:	f7ff ff63 	bl	8000108 <unpackxy>
 8000242:	2501      	movs	r5, #1
 8000244:	2800      	cmp	r0, #0
 8000246:	d501      	bpl.n	800024c <fdiv_n+0xe>
 8000248:	4240      	negs	r0, r0
 800024a:	4249      	negs	r1, r1
 800024c:	2400      	movs	r4, #0
 800024e:	2900      	cmp	r1, #0
 8000250:	d501      	bpl.n	8000256 <fdiv_n+0x18>
 8000252:	4249      	negs	r1, r1
 8000254:	43e4      	mvns	r4, r4
 8000256:	2bc8      	cmp	r3, #200	; 0xc8
 8000258:	da0e      	bge.n	8000278 <infret+0x2>
 800025a:	4252      	negs	r2, r2
 800025c:	2ac8      	cmp	r2, #200	; 0xc8
 800025e:	da0b      	bge.n	8000278 <infret+0x2>
 8000260:	18d2      	adds	r2, r2, r3
 8000262:	2340      	movs	r3, #64	; 0x40
 8000264:	1a09      	subs	r1, r1, r0
 8000266:	d200      	bcs.n	800026a <fdiv_n+0x2c>
 8000268:	4401      	add	r1, r0
 800026a:	415b      	adcs	r3, r3
 800026c:	4409      	add	r1, r1
 800026e:	d3f9      	bcc.n	8000264 <fdiv_n+0x26>
 8000270:	0118      	lsls	r0, r3, #4
 8000272:	4060      	eors	r0, r4
 8000274:	e7b4      	b.n	80001e0 <packret>

08000276 <infret>:
 8000276:	2400      	movs	r4, #0
 8000278:	4608      	mov	r0, r1
 800027a:	22ff      	movs	r2, #255	; 0xff
 800027c:	e7f9      	b.n	8000272 <fdiv_n+0x34>

0800027e <qfp_fdiv_fast>:
 800027e:	b530      	push	{r4, r5, lr}

08000280 <fdiv_fast_n>:
 8000280:	f7ff ff42 	bl	8000108 <unpackxy>
 8000284:	2800      	cmp	r0, #0
 8000286:	d501      	bpl.n	800028c <fdiv_fast_n+0xc>
 8000288:	4240      	negs	r0, r0
 800028a:	4249      	negs	r1, r1
 800028c:	2bc8      	cmp	r3, #200	; 0xc8
 800028e:	daf2      	bge.n	8000276 <infret>
 8000290:	4252      	negs	r2, r2
 8000292:	2ac8      	cmp	r2, #200	; 0xc8
 8000294:	daef      	bge.n	8000276 <infret>
 8000296:	18d2      	adds	r2, r2, r3
 8000298:	a423      	add	r4, pc, #140	; (adr r4, 8000328 <qfp_fsqrt_fast+0x5a>)
 800029a:	0d03      	lsrs	r3, r0, #20
 800029c:	5ce4      	ldrb	r4, [r4, r3]
 800029e:	00a3      	lsls	r3, r4, #2
 80002a0:	4343      	muls	r3, r0
 80002a2:	0224      	lsls	r4, r4, #8
 80002a4:	155b      	asrs	r3, r3, #21
 80002a6:	4363      	muls	r3, r4
 80002a8:	131b      	asrs	r3, r3, #12
 80002aa:	1ae4      	subs	r4, r4, r3
 80002ac:	4623      	mov	r3, r4
 80002ae:	4344      	muls	r4, r0
 80002b0:	1424      	asrs	r4, r4, #16
 80002b2:	435c      	muls	r4, r3
 80002b4:	021b      	lsls	r3, r3, #8
 80002b6:	13e4      	asrs	r4, r4, #15
 80002b8:	1b1b      	subs	r3, r3, r4
 80002ba:	01dc      	lsls	r4, r3, #7
 80002bc:	4343      	muls	r3, r0
 80002be:	13db      	asrs	r3, r3, #15
 80002c0:	0c20      	lsrs	r0, r4, #16
 80002c2:	4343      	muls	r3, r0
 80002c4:	141b      	asrs	r3, r3, #16
 80002c6:	1ae0      	subs	r0, r4, r3

080002c8 <div0>:
 80002c8:	3007      	adds	r0, #7
 80002ca:	0900      	lsrs	r0, r0, #4
 80002cc:	e7b3      	b.n	8000236 <fmul0>

080002ce <qfp_fsqrt_fast>:
 80002ce:	b530      	push	{r4, r5, lr}
 80002d0:	f7ff ff21 	bl	8000116 <unpackx>
 80002d4:	0001      	movs	r1, r0
 80002d6:	d4ce      	bmi.n	8000276 <infret>
 80002d8:	1050      	asrs	r0, r2, #1
 80002da:	d300      	bcc.n	80002de <qfp_fsqrt_fast+0x10>
 80002dc:	0049      	lsls	r1, r1, #1
 80002de:	3204      	adds	r2, #4
 80002e0:	a414      	add	r4, pc, #80	; (adr r4, 8000334 <rcpapp+0x4>)
 80002e2:	0d4b      	lsrs	r3, r1, #21
 80002e4:	5ce4      	ldrb	r4, [r4, r3]
 80002e6:	09c8      	lsrs	r0, r1, #7
 80002e8:	4360      	muls	r0, r4
 80002ea:	4360      	muls	r0, r4
 80002ec:	1300      	asrs	r0, r0, #12
 80002ee:	4360      	muls	r0, r4
 80002f0:	1340      	asrs	r0, r0, #13
 80002f2:	0224      	lsls	r4, r4, #8
 80002f4:	1a24      	subs	r4, r4, r0
 80002f6:	4620      	mov	r0, r4
 80002f8:	4340      	muls	r0, r0
 80002fa:	0c00      	lsrs	r0, r0, #16
 80002fc:	09cb      	lsrs	r3, r1, #7
 80002fe:	4358      	muls	r0, r3
 8000300:	1300      	asrs	r0, r0, #12
 8000302:	4360      	muls	r0, r4
 8000304:	1540      	asrs	r0, r0, #21
 8000306:	1a24      	subs	r4, r4, r0
 8000308:	4620      	mov	r0, r4
 800030a:	4340      	muls	r0, r0
 800030c:	0b03      	lsrs	r3, r0, #12
 800030e:	434b      	muls	r3, r1
 8000310:	0500      	lsls	r0, r0, #20
 8000312:	0d00      	lsrs	r0, r0, #20
 8000314:	0b0d      	lsrs	r5, r1, #12
 8000316:	4368      	muls	r0, r5
 8000318:	4418      	add	r0, r3
 800031a:	13c0      	asrs	r0, r0, #15
 800031c:	4360      	muls	r0, r4
 800031e:	0364      	lsls	r4, r4, #13
 8000320:	1400      	asrs	r0, r0, #16
 8000322:	1a20      	subs	r0, r4, r0
 8000324:	1052      	asrs	r2, r2, #1
 8000326:	d3cf      	bcc.n	80002c8 <div0>
 8000328:	0840      	lsrs	r0, r0, #1
 800032a:	0049      	lsls	r1, r1, #1
 800032c:	e7cc      	b.n	80002c8 <div0>
 800032e:	46c0      	nop			; (mov r8, r8)

08000330 <rcpapp>:
 8000330:	b2c3d8f1 	sbclt	sp, r3, #15794176	; 0xf10000
 8000334:	848d98a4 	strhi	r9, [sp], #2212	; 0x8a4

08000338 <rsqrtapp>:
 8000338:	bbc9daf1 	bllt	7276f04 <_Min_Stack_Size+0x7276b04>
 800033c:	979ea6b0 			; <UNDEFINED> instruction: 0x979ea6b0
 8000340:	82868b91 	addhi	r8, r6, #148480	; 0x24400

08000344 <qfp_float2int>:
 8000344:	2100      	movs	r1, #0

08000346 <qfp_float2fix>:
 8000346:	b510      	push	{r4, lr}
 8000348:	f7ff fee5 	bl	8000116 <unpackx>
 800034c:	440a      	add	r2, r1
 800034e:	3a17      	subs	r2, #23
 8000350:	db07      	blt.n	8000362 <qfp_float2fix+0x1c>
 8000352:	2a07      	cmp	r2, #7
 8000354:	dd17      	ble.n	8000386 <qfp_float2ufix+0x16>
 8000356:	17c1      	asrs	r1, r0, #31
 8000358:	43c9      	mvns	r1, r1
 800035a:	2001      	movs	r0, #1
 800035c:	07c0      	lsls	r0, r0, #31
 800035e:	4048      	eors	r0, r1
 8000360:	bd10      	pop	{r4, pc}
 8000362:	4252      	negs	r2, r2
 8000364:	2a20      	cmp	r2, #32
 8000366:	db00      	blt.n	800036a <qfp_float2fix+0x24>
 8000368:	2220      	movs	r2, #32
 800036a:	4110      	asrs	r0, r2
 800036c:	bd10      	pop	{r4, pc}

0800036e <qfp_float2uint>:
 800036e:	2100      	movs	r1, #0

08000370 <qfp_float2ufix>:
 8000370:	b510      	push	{r4, lr}
 8000372:	f7ff fed0 	bl	8000116 <unpackx>
 8000376:	440a      	add	r2, r1
 8000378:	0001      	movs	r1, r0
 800037a:	d4f0      	bmi.n	800035e <qfp_float2fix+0x18>
 800037c:	3a17      	subs	r2, #23
 800037e:	dbf0      	blt.n	8000362 <qfp_float2fix+0x1c>
 8000380:	43c1      	mvns	r1, r0
 8000382:	2a08      	cmp	r2, #8
 8000384:	dceb      	bgt.n	800035e <qfp_float2fix+0x18>
 8000386:	4090      	lsls	r0, r2
 8000388:	bd10      	pop	{r4, pc}

0800038a <qfp_int2float>:
 800038a:	2100      	movs	r1, #0

0800038c <qfp_fix2float>:
 800038c:	b530      	push	{r4, r5, lr}
 800038e:	221d      	movs	r2, #29
 8000390:	1a52      	subs	r2, r2, r1

08000392 <packretns>:
 8000392:	2500      	movs	r5, #0
 8000394:	e724      	b.n	80001e0 <packret>

08000396 <qfp_uint2float>:
 8000396:	2100      	movs	r1, #0

08000398 <qfp_ufix2float>:
 8000398:	b530      	push	{r4, r5, lr}
 800039a:	2800      	cmp	r0, #0
 800039c:	daf7      	bge.n	800038e <qfp_fix2float+0x2>
 800039e:	221e      	movs	r2, #30
 80003a0:	1a52      	subs	r2, r2, r1
 80003a2:	07c5      	lsls	r5, r0, #31
 80003a4:	0840      	lsrs	r0, r0, #1
 80003a6:	e71b      	b.n	80001e0 <packret>

080003a8 <cordic_start>:
 80003a8:	2500      	movs	r5, #0
 80003aa:	46a4      	mov	ip, r4
 80003ac:	e00d      	b.n	80003ca <cordic_rstep+0x16>

080003ae <cordic_vstep>:
 80003ae:	2900      	cmp	r1, #0
 80003b0:	dc02      	bgt.n	80003b8 <cordic_rstep+0x4>
 80003b2:	e005      	b.n	80003c0 <cordic_rstep+0xc>

080003b4 <cordic_rstep>:
 80003b4:	2a00      	cmp	r2, #0
 80003b6:	da03      	bge.n	80003c0 <cordic_rstep+0xc>
 80003b8:	1b89      	subs	r1, r1, r6
 80003ba:	427f      	negs	r7, r7
 80003bc:	1912      	adds	r2, r2, r4
 80003be:	e001      	b.n	80003c4 <cordic_rstep+0x10>
 80003c0:	1989      	adds	r1, r1, r6
 80003c2:	1b12      	subs	r2, r2, r4
 80003c4:	4664      	mov	r4, ip
 80003c6:	4367      	muls	r7, r4
 80003c8:	1bc0      	subs	r0, r0, r7
 80003ca:	cb10      	ldmia	r3!, {r4}
 80003cc:	0864      	lsrs	r4, r4, #1
 80003ce:	d200      	bcs.n	80003d2 <cordic_rstep+0x1e>
 80003d0:	3501      	adds	r5, #1
 80003d2:	4606      	mov	r6, r0
 80003d4:	412e      	asrs	r6, r5
 80003d6:	460f      	mov	r7, r1
 80003d8:	412f      	asrs	r7, r5
 80003da:	0864      	lsrs	r4, r4, #1
 80003dc:	4770      	bx	lr

080003de <cordic_rot>:
 80003de:	b5c0      	push	{r6, r7, lr}
 80003e0:	f7ff ffe2 	bl	80003a8 <cordic_start>
 80003e4:	f7ff ffe6 	bl	80003b4 <cordic_rstep>
 80003e8:	d3fc      	bcc.n	80003e4 <cordic_rot+0x6>
 80003ea:	1386      	asrs	r6, r0, #14
 80003ec:	138f      	asrs	r7, r1, #14
 80003ee:	10d2      	asrs	r2, r2, #3
 80003f0:	4356      	muls	r6, r2
 80003f2:	4357      	muls	r7, r2
 80003f4:	4664      	mov	r4, ip
 80003f6:	4367      	muls	r7, r4
 80003f8:	1336      	asrs	r6, r6, #12
 80003fa:	133f      	asrs	r7, r7, #12
 80003fc:	1bc0      	subs	r0, r0, r7
 80003fe:	1989      	adds	r1, r1, r6

08000400 <cordic_exit>:
 8000400:	bdc0      	pop	{r6, r7, pc}

08000402 <cordic_vec>:
 8000402:	b5c0      	push	{r6, r7, lr}
 8000404:	f7ff ffd0 	bl	80003a8 <cordic_start>
 8000408:	f7ff ffd1 	bl	80003ae <cordic_vstep>
 800040c:	d3fc      	bcc.n	8000408 <cordic_vec+0x6>
 800040e:	2900      	cmp	r1, #0
 8000410:	dc02      	bgt.n	8000418 <cordic_vec+0x16>
 8000412:	1989      	adds	r1, r1, r6
 8000414:	1b12      	subs	r2, r2, r4
 8000416:	e001      	b.n	800041c <cordic_vec+0x1a>
 8000418:	1b89      	subs	r1, r1, r6
 800041a:	1912      	adds	r2, r2, r4
 800041c:	1076      	asrs	r6, r6, #1
 800041e:	1064      	asrs	r4, r4, #1
 8000420:	d1f5      	bne.n	800040e <cordic_vec+0xc>
 8000422:	e7ed      	b.n	8000400 <cordic_exit>

08000424 <qfp_fsin>:
 8000424:	b530      	push	{r4, r5, lr}
 8000426:	2118      	movs	r1, #24
 8000428:	f7ff ff8d 	bl	8000346 <qfp_float2fix>
 800042c:	4c48      	ldr	r4, [pc, #288]	; (8000550 <pi_q29>)
 800042e:	0924      	lsrs	r4, r4, #4
 8000430:	1b00      	subs	r0, r0, r4
 8000432:	dafd      	bge.n	8000430 <qfp_fsin+0xc>
 8000434:	1900      	adds	r0, r0, r4
 8000436:	d4fd      	bmi.n	8000434 <qfp_fsin+0x10>
 8000438:	0082      	lsls	r2, r0, #2
 800043a:	0065      	lsls	r5, r4, #1
 800043c:	483e      	ldr	r0, [pc, #248]	; (8000538 <qfp_fatan2+0x34>)
 800043e:	2100      	movs	r1, #0
 8000440:	42a2      	cmp	r2, r4
 8000442:	db02      	blt.n	800044a <qfp_fsin+0x26>
 8000444:	1b52      	subs	r2, r2, r5
 8000446:	4240      	negs	r0, r0
 8000448:	e7fa      	b.n	8000440 <qfp_fsin+0x1c>
 800044a:	00d2      	lsls	r2, r2, #3
 800044c:	a340      	add	r3, pc, #256	; (adr r3, 8000550 <pi_q29>)
 800044e:	2401      	movs	r4, #1
 8000450:	f7ff ffc5 	bl	80003de <cordic_rot>
 8000454:	3109      	adds	r1, #9
 8000456:	2200      	movs	r2, #0
 8000458:	2300      	movs	r3, #0
 800045a:	2500      	movs	r5, #0
 800045c:	f7ff fe72 	bl	8000144 <packx>
 8000460:	f7ff fe4e 	bl	8000100 <xchxy>
 8000464:	e795      	b.n	8000392 <packretns>

08000466 <qfp_fcos>:
 8000466:	b500      	push	{lr}
 8000468:	f7ff ffdc 	bl	8000424 <qfp_fsin>
 800046c:	4608      	mov	r0, r1
 800046e:	bd00      	pop	{pc}

08000470 <qfp_ftan>:
 8000470:	b530      	push	{r4, r5, lr}
 8000472:	f7ff ffd7 	bl	8000424 <qfp_fsin>
 8000476:	e703      	b.n	8000280 <fdiv_fast_n>

08000478 <qfp_fexp>:
 8000478:	b530      	push	{r4, r5, lr}
 800047a:	2118      	movs	r1, #24
 800047c:	f7ff ff63 	bl	8000346 <qfp_float2fix>
 8000480:	1401      	asrs	r1, r0, #16
 8000482:	4a2e      	ldr	r2, [pc, #184]	; (800053c <qfp_fatan2+0x38>)
 8000484:	4351      	muls	r1, r2
 8000486:	14c9      	asrs	r1, r1, #19
 8000488:	3101      	adds	r1, #1
 800048a:	1049      	asrs	r1, r1, #1
 800048c:	b402      	push	{r1}
 800048e:	0142      	lsls	r2, r0, #5
 8000490:	482b      	ldr	r0, [pc, #172]	; (8000540 <qfp_fatan2+0x3c>)
 8000492:	4341      	muls	r1, r0
 8000494:	1a52      	subs	r2, r2, r1
 8000496:	482b      	ldr	r0, [pc, #172]	; (8000544 <qfp_fatan2+0x40>)
 8000498:	2100      	movs	r1, #0
 800049a:	a33a      	add	r3, pc, #232	; (adr r3, 8000584 <tab_ch>)
 800049c:	43cc      	mvns	r4, r1
 800049e:	f7ff ff9e 	bl	80003de <cordic_rot>
 80004a2:	4408      	add	r0, r1
 80004a4:	bc04      	pop	{r2}
 80004a6:	e774      	b.n	8000392 <packretns>

080004a8 <qfp_fsqrt>:
 80004a8:	b530      	push	{r4, r5, lr}
 80004aa:	f7ff fe34 	bl	8000116 <unpackx>
 80004ae:	0001      	movs	r1, r0
 80004b0:	d415      	bmi.n	80004de <qfp_fsqrt+0x36>
 80004b2:	4925      	ldr	r1, [pc, #148]	; (8000548 <qfp_fatan2+0x44>)
 80004b4:	f7ff fe97 	bl	80001e6 <mul0>
 80004b8:	1051      	asrs	r1, r2, #1
 80004ba:	d301      	bcc.n	80004c0 <qfp_fsqrt+0x18>
 80004bc:	3101      	adds	r1, #1
 80004be:	1040      	asrs	r0, r0, #1
 80004c0:	b402      	push	{r1}
 80004c2:	4601      	mov	r1, r0
 80004c4:	4b20      	ldr	r3, [pc, #128]	; (8000548 <qfp_fatan2+0x44>)
 80004c6:	009b      	lsls	r3, r3, #2
 80004c8:	18c0      	adds	r0, r0, r3
 80004ca:	1ac9      	subs	r1, r1, r3
 80004cc:	2200      	movs	r2, #0
 80004ce:	a32d      	add	r3, pc, #180	; (adr r3, 8000584 <tab_ch>)
 80004d0:	43d4      	mvns	r4, r2
 80004d2:	f7ff ff96 	bl	8000402 <cordic_vec>
 80004d6:	4611      	mov	r1, r2
 80004d8:	bc04      	pop	{r2}
 80004da:	0013      	movs	r3, r2
 80004dc:	e759      	b.n	8000392 <packretns>
 80004de:	22ff      	movs	r2, #255	; 0xff
 80004e0:	e7fb      	b.n	80004da <qfp_fsqrt+0x32>

080004e2 <qfp_fln>:
 80004e2:	b530      	push	{r4, r5, lr}
 80004e4:	f7ff ffe0 	bl	80004a8 <qfp_fsqrt>
 80004e8:	2b46      	cmp	r3, #70	; 0x46
 80004ea:	dcf8      	bgt.n	80004de <qfp_fsqrt+0x36>
 80004ec:	425b      	negs	r3, r3
 80004ee:	2b46      	cmp	r3, #70	; 0x46
 80004f0:	dc06      	bgt.n	8000500 <qfp_fln+0x1e>
 80004f2:	4816      	ldr	r0, [pc, #88]	; (800054c <qfp_fatan2+0x48>)
 80004f4:	4358      	muls	r0, r3
 80004f6:	3108      	adds	r1, #8
 80004f8:	1109      	asrs	r1, r1, #4
 80004fa:	1a08      	subs	r0, r1, r0
 80004fc:	2205      	movs	r2, #5
 80004fe:	e748      	b.n	8000392 <packretns>
 8000500:	43c0      	mvns	r0, r0
 8000502:	e7ec      	b.n	80004de <qfp_fsqrt+0x36>

08000504 <qfp_fatan2>:
 8000504:	b530      	push	{r4, r5, lr}
 8000506:	f7ff fe46 	bl	8000196 <unpackxyalign>
 800050a:	1040      	asrs	r0, r0, #1
 800050c:	1049      	asrs	r1, r1, #1
 800050e:	2200      	movs	r2, #0
 8000510:	2800      	cmp	r0, #0
 8000512:	da02      	bge.n	800051a <qfp_fatan2+0x16>
 8000514:	4240      	negs	r0, r0
 8000516:	4249      	negs	r1, r1
 8000518:	4a0d      	ldr	r2, [pc, #52]	; (8000550 <pi_q29>)
 800051a:	a30d      	add	r3, pc, #52	; (adr r3, 8000550 <pi_q29>)
 800051c:	2401      	movs	r4, #1
 800051e:	f7ff ff70 	bl	8000402 <cordic_vec>
 8000522:	4610      	mov	r0, r2
 8000524:	4a0a      	ldr	r2, [pc, #40]	; (8000550 <pi_q29>)
 8000526:	1884      	adds	r4, r0, r2
 8000528:	d202      	bcs.n	8000530 <qfp_fatan2+0x2c>
 800052a:	1a84      	subs	r4, r0, r2
 800052c:	d400      	bmi.n	8000530 <qfp_fatan2+0x2c>
 800052e:	1aa0      	subs	r0, r4, r2
 8000530:	3801      	subs	r0, #1
 8000532:	2200      	movs	r2, #0
 8000534:	e72d      	b.n	8000392 <packretns>
 8000536:	46c0      	nop			; (mov r8, r8)
 8000538:	136e9db4 	cmnne	lr, #180, 26	; 0x2d00
 800053c:	00001715 	andeq	r1, r0, r5, lsl r7
 8000540:	162e42ff 			; <UNDEFINED> instruction: 0x162e42ff
 8000544:	2c9e15ca 	cfldr32cs	mvfx1, [lr], {202}	; 0xca
 8000548:	0593c2b9 	ldreq	ip, [r3, #697]	; 0x2b9
 800054c:	0162e430 	cmneq	r2, r0, lsr r4

08000550 <pi_q29>:
 8000550:	6487ed51 	strvs	lr, [r7], #3409	; 0xd51
 8000554:	3b58ce0c 	blcc	9633d8c <_sidata+0x162c53c>
 8000558:	1f5b75f8 	svcne	0x005b75f8
 800055c:	0feadd4c 	svceq	0x00eadd4c
 8000560:	07fd56ec 	ldrbeq	r5, [sp, ip, ror #13]!
 8000564:	03ffaab8 	mvnseq	sl, #184, 20	; 0xb8000
 8000568:	01fff554 	mvnseq	pc, r4, asr r5	; <UNPREDICTABLE>
 800056c:	00fffeac 	rscseq	pc, pc, ip, lsr #29
 8000570:	007fffd4 	ldrsbteq	pc, [pc], #-244	; <UNPREDICTABLE>
 8000574:	003ffffc 	ldrshteq	pc, [pc], -ip	; <UNPREDICTABLE>
 8000578:	001ffffc 			; <UNDEFINED> instruction: 0x001ffffc
 800057c:	00100000 	andseq	r0, r0, r0
 8000580:	00080002 	andeq	r0, r8, r2

08000584 <tab_ch>:
 8000584:	464fa9ec 	strbmi	sl, [pc], -ip, ror #19
 8000588:	464fa9ed 	strbmi	sl, [pc], -sp, ror #19
 800058c:	20b15df4 	ldrshtcs	r5, [r1], r4
 8000590:	1015891c 	andsne	r8, r5, ip, lsl r9
 8000594:	0802ac44 	stmdaeq	r2, {r2, r6, sl, fp, sp, pc}
 8000598:	0802ac45 	stmdaeq	r2, {r0, r2, r6, sl, fp, sp, pc}
 800059c:	04005564 	streq	r5, [r0], #-1380	; 0xfffffa9c
 80005a0:	02000aac 	andeq	r0, r0, #172, 20	; 0xac000
 80005a4:	01000154 	tsteq	r0, r4, asr r1
 80005a8:	0080002c 	addeq	r0, r0, ip, lsr #32
 80005ac:	00400004 	subeq	r0, r0, r4
 80005b0:	00200004 	eoreq	r0, r0, r4
 80005b4:	00100000 	andseq	r0, r0, r0
 80005b8:	00080000 	andeq	r0, r8, r0
 80005bc:	00080003 	andeq	r0, r8, r3

080005c0 <strlen>:
 80005c0:	4603      	mov	r3, r0
 80005c2:	f813 2b01 	ldrb.w	r2, [r3], #1
 80005c6:	2a00      	cmp	r2, #0
 80005c8:	d1fb      	bne.n	80005c2 <strlen+0x2>
 80005ca:	1a18      	subs	r0, r3, r0
 80005cc:	3801      	subs	r0, #1
 80005ce:	4770      	bx	lr

080005d0 <Reset_Handler>:
 80005d0:	480d      	ldr	r0, [pc, #52]	; (8000608 <LoopForever+0x2>)
 80005d2:	4685      	mov	sp, r0
 80005d4:	480d      	ldr	r0, [pc, #52]	; (800060c <LoopForever+0x6>)
 80005d6:	490e      	ldr	r1, [pc, #56]	; (8000610 <LoopForever+0xa>)
 80005d8:	4a0e      	ldr	r2, [pc, #56]	; (8000614 <LoopForever+0xe>)
 80005da:	2300      	movs	r3, #0
 80005dc:	e002      	b.n	80005e4 <LoopCopyDataInit>

080005de <CopyDataInit>:
 80005de:	58d4      	ldr	r4, [r2, r3]
 80005e0:	50c4      	str	r4, [r0, r3]
 80005e2:	3304      	adds	r3, #4

080005e4 <LoopCopyDataInit>:
 80005e4:	18c4      	adds	r4, r0, r3
 80005e6:	428c      	cmp	r4, r1
 80005e8:	d3f9      	bcc.n	80005de <CopyDataInit>
 80005ea:	4a0b      	ldr	r2, [pc, #44]	; (8000618 <LoopForever+0x12>)
 80005ec:	4c0b      	ldr	r4, [pc, #44]	; (800061c <LoopForever+0x16>)
 80005ee:	2300      	movs	r3, #0
 80005f0:	e001      	b.n	80005f6 <LoopFillZerobss>

080005f2 <FillZerobss>:
 80005f2:	6013      	str	r3, [r2, #0]
 80005f4:	3204      	adds	r2, #4

080005f6 <LoopFillZerobss>:
 80005f6:	42a2      	cmp	r2, r4
 80005f8:	d3fb      	bcc.n	80005f2 <FillZerobss>
 80005fa:	f000 f812 	bl	8000622 <SystemInit>
 80005fe:	f005 fce7 	bl	8005fd0 <__libc_init_array>
 8000602:	f002 f8a5 	bl	8002750 <main>

08000606 <LoopForever>:
 8000606:	e7fe      	b.n	8000606 <LoopForever>
 8000608:	20002000 	andcs	r2, r0, r0
 800060c:	20000000 	andcs	r0, r0, r0
 8000610:	20000070 	andcs	r0, r0, r0, ror r0
 8000614:	08007850 	stmdaeq	r0, {r4, r6, fp, ip, sp, lr}
 8000618:	20000070 	andcs	r0, r0, r0, ror r0
 800061c:	20000e64 	andcs	r0, r0, r4, ror #28

08000620 <ADC1_COMP_IRQHandler>:
 8000620:	e7fe      	b.n	8000620 <ADC1_COMP_IRQHandler>

08000622 <SystemInit>:
 8000622:	4770      	bx	lr

08000624 <onPulseClicksMenuGetOption>:
 8000624:	4b05      	ldr	r3, [pc, #20]	; (800063c <onPulseClicksMenuGetOption+0x18>)
 8000626:	685b      	ldr	r3, [r3, #4]
 8000628:	f3c3 33c1 	ubfx	r3, r3, #15, #2
 800062c:	1a58      	subs	r0, r3, r1
 800062e:	4243      	negs	r3, r0
 8000630:	4143      	adcs	r3, r0
 8000632:	6013      	str	r3, [r2, #0]
 8000634:	4b02      	ldr	r3, [pc, #8]	; (8000640 <onPulseClicksMenuGetOption+0x1c>)
 8000636:	f853 0021 	ldr.w	r0, [r3, r1, lsl #2]
 800063a:	4770      	bx	lr
 800063c:	20000da0 	andcs	r0, r0, r0, lsr #27
 8000640:	0800616c 	stmdaeq	r0, {r2, r3, r5, r6, r8, sp, lr}

08000644 <onPulseClicksMenuSelect>:
 8000644:	4b03      	ldr	r3, [pc, #12]	; (8000654 <onPulseClicksMenuSelect+0x10>)
 8000646:	6841      	ldr	r1, [r0, #4]
 8000648:	685a      	ldr	r2, [r3, #4]
 800064a:	8849      	ldrh	r1, [r1, #2]
 800064c:	f361 32d0 	bfi	r2, r1, #15, #2
 8000650:	605a      	str	r2, [r3, #4]
 8000652:	4770      	bx	lr
 8000654:	20000da0 	andcs	r0, r0, r0, lsr #27

08000658 <initBuzzer>:
 8000658:	b508      	push	{r3, lr}
 800065a:	f003 fef1 	bl	8004440 <initBuzzerController>
 800065e:	4b05      	ldr	r3, [pc, #20]	; (8000674 <initBuzzer+0x1c>)
 8000660:	2203      	movs	r2, #3
 8000662:	6859      	ldr	r1, [r3, #4]
 8000664:	4804      	ldr	r0, [pc, #16]	; (8000678 <initBuzzer+0x20>)
 8000666:	f3c1 31c1 	ubfx	r1, r1, #15, #2
 800066a:	e8bd 4008 	ldmia.w	sp!, {r3, lr}
 800066e:	f002 bffd 	b.w	800366c <selectMenuItem>
 8000672:	bf00      	nop
 8000674:	20000da0 	andcs	r0, r0, r0, lsr #27
 8000678:	08006158 	stmdaeq	r0, {r3, r4, r6, r8, sp, lr}

0800067c <playSystemAlert>:
 800067c:	b510      	push	{r4, lr}
 800067e:	240a      	movs	r4, #10
 8000680:	2001      	movs	r0, #1
 8000682:	f003 fef7 	bl	8004474 <setBuzzer>
 8000686:	2032      	movs	r0, #50	; 0x32
 8000688:	f004 f876 	bl	8004778 <sleep>
 800068c:	2000      	movs	r0, #0
 800068e:	f003 fef1 	bl	8004474 <setBuzzer>
 8000692:	2032      	movs	r0, #50	; 0x32
 8000694:	f004 f870 	bl	8004778 <sleep>
 8000698:	3c01      	subs	r4, #1
 800069a:	d1f1      	bne.n	8000680 <playSystemAlert+0x4>
 800069c:	bd10      	pop	{r4, pc}

0800069e <addClamped>:
 800069e:	43ca      	mvns	r2, r1
 80006a0:	6803      	ldr	r3, [r0, #0]
 80006a2:	4293      	cmp	r3, r2
 80006a4:	bf8c      	ite	hi
 80006a6:	f04f 33ff 	movhi.w	r3, #4294967295
 80006aa:	185b      	addls	r3, r3, r1
 80006ac:	6003      	str	r3, [r0, #0]
 80006ae:	4770      	bx	lr

080006b0 <getConfidenceInterval>:
 80006b0:	2801      	cmp	r0, #1
 80006b2:	b538      	push	{r3, r4, r5, lr}
 80006b4:	d919      	bls.n	80006ea <getConfidenceInterval+0x3a>
 80006b6:	2802      	cmp	r0, #2
 80006b8:	d019      	beq.n	80006ee <getConfidenceInterval+0x3e>
 80006ba:	f003 feef 	bl	800449c <__aeabi_ui2f>
 80006be:	4604      	mov	r4, r0
 80006c0:	f003 ff31 	bl	8004526 <sqrtf>
 80006c4:	490b      	ldr	r1, [pc, #44]	; (80006f4 <getConfidenceInterval+0x44>)
 80006c6:	4605      	mov	r5, r0
 80006c8:	4620      	mov	r0, r4
 80006ca:	f003 fedf 	bl	800448c <__aeabi_fadd>
 80006ce:	4601      	mov	r1, r0
 80006d0:	4809      	ldr	r0, [pc, #36]	; (80006f8 <getConfidenceInterval+0x48>)
 80006d2:	f003 fee1 	bl	8004498 <__aeabi_fdiv>
 80006d6:	4629      	mov	r1, r5
 80006d8:	4604      	mov	r4, r0
 80006da:	4808      	ldr	r0, [pc, #32]	; (80006fc <getConfidenceInterval+0x4c>)
 80006dc:	f003 fedc 	bl	8004498 <__aeabi_fdiv>
 80006e0:	4601      	mov	r1, r0
 80006e2:	4620      	mov	r0, r4
 80006e4:	f003 fed2 	bl	800448c <__aeabi_fadd>
 80006e8:	bd38      	pop	{r3, r4, r5, pc}
 80006ea:	4805      	ldr	r0, [pc, #20]	; (8000700 <getConfidenceInterval+0x50>)
 80006ec:	e7fc      	b.n	80006e8 <getConfidenceInterval+0x38>
 80006ee:	4805      	ldr	r0, [pc, #20]	; (8000704 <getConfidenceInterval+0x54>)
 80006f0:	e7fa      	b.n	80006e8 <getConfidenceInterval+0x38>
 80006f2:	bf00      	nop
 80006f4:	3eae7642 	cdpcc	6, 10, cr7, cr14, cr2, {2}
 80006f8:	3f6bc37a 	svccc	0x006bc37a
 80006fc:	3ffae01a 	svccc	0x00fae01a
 8000700:	402c169a 	mlami	ip, sl, r6, r1
 8000704:	3fe495ce 	svccc	0x00e495ce

08000708 <getRandomBit>:
 8000708:	4a05      	ldr	r2, [pc, #20]	; (8000720 <getRandomBit+0x18>)
 800070a:	6811      	ldr	r1, [r2, #0]
 800070c:	f001 0001 	and.w	r0, r1, #1
 8000710:	4243      	negs	r3, r0
 8000712:	f403 4334 	and.w	r3, r3, #46080	; 0xb400
 8000716:	ea83 0351 	eor.w	r3, r3, r1, lsr #1
 800071a:	6013      	str	r3, [r2, #0]
 800071c:	4770      	bx	lr
 800071e:	bf00      	nop
 8000720:	20000000 	andcs	r0, r0, r0

08000724 <matchCommCommand>:
 8000724:	4a07      	ldr	r2, [pc, #28]	; (8000744 <matchCommCommand+0x20>)
 8000726:	1e41      	subs	r1, r0, #1
 8000728:	f811 3f01 	ldrb.w	r3, [r1, #1]!
 800072c:	f812 0f01 	ldrb.w	r0, [r2, #1]!
 8000730:	b923      	cbnz	r3, 800073c <matchCommCommand+0x18>
 8000732:	2820      	cmp	r0, #32
 8000734:	bf8c      	ite	hi
 8000736:	2000      	movhi	r0, #0
 8000738:	2001      	movls	r0, #1
 800073a:	4770      	bx	lr
 800073c:	4298      	cmp	r0, r3
 800073e:	d0f3      	beq.n	8000728 <matchCommCommand+0x4>
 8000740:	2000      	movs	r0, #0
 8000742:	4770      	bx	lr
 8000744:	20000c83 	andcs	r0, r0, r3, lsl #25

08000748 <sendCommOk>:
 8000748:	4901      	ldr	r1, [pc, #4]	; (8000750 <sendCommOk+0x8>)
 800074a:	4802      	ldr	r0, [pc, #8]	; (8000754 <sendCommOk+0xc>)
 800074c:	f005 bc86 	b.w	800605c <strcpy>
 8000750:	080062dd 	stmdaeq	r0, {r0, r2, r3, r4, r6, r7, r9, sp, lr}
 8000754:	20000c84 	andcs	r0, r0, r4, lsl #25

08000758 <sendCommOkWithUInt32>:
 8000758:	b510      	push	{r4, lr}
 800075a:	4604      	mov	r4, r0
 800075c:	f7ff fff4 	bl	8000748 <sendCommOk>
 8000760:	4b05      	ldr	r3, [pc, #20]	; (8000778 <sendCommOkWithUInt32+0x20>)
 8000762:	4906      	ldr	r1, [pc, #24]	; (800077c <sendCommOkWithUInt32+0x24>)
 8000764:	4618      	mov	r0, r3
 8000766:	f005 fc6a 	bl	800603e <strcat>
 800076a:	4621      	mov	r1, r4
 800076c:	e8bd 4010 	ldmia.w	sp!, {r4, lr}
 8000770:	2200      	movs	r2, #0
 8000772:	f000 b99b 	b.w	8000aac <strcatUInt32>
 8000776:	bf00      	nop
 8000778:	20000c84 	andcs	r0, r0, r4, lsl #25
 800077c:	08006506 	stmdaeq	r0, {r1, r2, r8, sl, sp, lr}

08000780 <sendCommOkWithFloat>:
 8000780:	b538      	push	{r3, r4, r5, lr}
 8000782:	4604      	mov	r4, r0
 8000784:	460d      	mov	r5, r1
 8000786:	f7ff ffdf 	bl	8000748 <sendCommOk>
 800078a:	4b05      	ldr	r3, [pc, #20]	; (80007a0 <sendCommOkWithFloat+0x20>)
 800078c:	4905      	ldr	r1, [pc, #20]	; (80007a4 <sendCommOkWithFloat+0x24>)
 800078e:	4618      	mov	r0, r3
 8000790:	f005 fc55 	bl	800603e <strcat>
 8000794:	462a      	mov	r2, r5
 8000796:	4621      	mov	r1, r4
 8000798:	e8bd 4038 	ldmia.w	sp!, {r3, r4, r5, lr}
 800079c:	f000 b9ea 	b.w	8000b74 <strcatFloat>
 80007a0:	20000c84 	andcs	r0, r0, r4, lsl #25
 80007a4:	08006506 	stmdaeq	r0, {r1, r2, r8, sl, sp, lr}

080007a8 <startDatalogDumpTemp>:
 80007a8:	b510      	push	{r4, lr}
 80007aa:	4c08      	ldr	r4, [pc, #32]	; (80007cc <startDatalogDumpTemp+0x24>)
 80007ac:	f7ff ffcc 	bl	8000748 <sendCommOk>
 80007b0:	4907      	ldr	r1, [pc, #28]	; (80007d0 <startDatalogDumpTemp+0x28>)
 80007b2:	4620      	mov	r0, r4
 80007b4:	f005 fc43 	bl	800603e <strcat>
 80007b8:	f000 fca0 	bl	80010fc <startDatalogDownload>
 80007bc:	2301      	movs	r3, #1
 80007be:	f884 3041 	strb.w	r3, [r4, #65]	; 0x41
 80007c2:	e8bd 4010 	ldmia.w	sp!, {r4, lr}
 80007c6:	f003 bf05 	b.w	80045d4 <transmitComm>
 80007ca:	bf00      	nop
 80007cc:	20000c84 	andcs	r0, r0, r4, lsl #25
 80007d0:	080062e0 	stmdaeq	r0, {r5, r6, r7, r9, sp, lr}

080007d4 <matchCommCommandWithUInt32>:
 80007d4:	b5f8      	push	{r3, r4, r5, r6, r7, lr}
 80007d6:	4607      	mov	r7, r0
 80007d8:	460d      	mov	r5, r1
 80007da:	f7ff ffa3 	bl	8000724 <matchCommCommand>
 80007de:	b180      	cbz	r0, 8000802 <matchCommCommandWithUInt32+0x2e>
 80007e0:	4c09      	ldr	r4, [pc, #36]	; (8000808 <matchCommCommandWithUInt32+0x34>)
 80007e2:	4620      	mov	r0, r4
 80007e4:	f7ff feec 	bl	80005c0 <strlen>
 80007e8:	4606      	mov	r6, r0
 80007ea:	4638      	mov	r0, r7
 80007ec:	f7ff fee8 	bl	80005c0 <strlen>
 80007f0:	3001      	adds	r0, #1
 80007f2:	4286      	cmp	r6, r0
 80007f4:	d906      	bls.n	8000804 <matchCommCommandWithUInt32+0x30>
 80007f6:	4629      	mov	r1, r5
 80007f8:	4420      	add	r0, r4
 80007fa:	f000 f979 	bl	8000af0 <parseUInt32>
 80007fe:	f000 0001 	and.w	r0, r0, #1
 8000802:	bdf8      	pop	{r3, r4, r5, r6, r7, pc}
 8000804:	2000      	movs	r0, #0
 8000806:	e7fa      	b.n	80007fe <matchCommCommandWithUInt32+0x2a>
 8000808:	20000c84 	andcs	r0, r0, r4, lsl #25

0800080c <setCommEnabled>:
 800080c:	4b01      	ldr	r3, [pc, #4]	; (8000814 <setCommEnabled+0x8>)
 800080e:	f883 0048 	strb.w	r0, [r3, #72]	; 0x48
 8000812:	4770      	bx	lr
 8000814:	20000c7c 	andcs	r0, r0, ip, ror ip

08000818 <dispatchCommEvents>:
 8000818:	e92d 43f7 	stmdb	sp!, {r0, r1, r2, r4, r5, r6, r7, r8, r9, lr}
 800081c:	4c87      	ldr	r4, [pc, #540]	; (8000a3c <dispatchCommEvents+0x224>)
 800081e:	f003 ff2d 	bl	800467c <updateCommController>
 8000822:	7866      	ldrb	r6, [r4, #1]
 8000824:	4625      	mov	r5, r4
 8000826:	b2f6      	uxtb	r6, r6
 8000828:	2e01      	cmp	r6, #1
 800082a:	f040 80cc 	bne.w	80009c6 <dispatchCommEvents+0x1ae>
 800082e:	4884      	ldr	r0, [pc, #528]	; (8000a40 <dispatchCommEvents+0x228>)
 8000830:	f7ff ff78 	bl	8000724 <matchCommCommand>
 8000834:	b1f8      	cbz	r0, 8000876 <dispatchCommEvents+0x5e>
 8000836:	4d83      	ldr	r5, [pc, #524]	; (8000a44 <dispatchCommEvents+0x22c>)
 8000838:	f7ff ff86 	bl	8000748 <sendCommOk>
 800083c:	4982      	ldr	r1, [pc, #520]	; (8000a48 <dispatchCommEvents+0x230>)
 800083e:	f104 0008 	add.w	r0, r4, #8
 8000842:	f005 fbfc 	bl	800603e <strcat>
 8000846:	6829      	ldr	r1, [r5, #0]
 8000848:	f104 0008 	add.w	r0, r4, #8
 800084c:	f005 fbf7 	bl	800603e <strcat>
 8000850:	497e      	ldr	r1, [pc, #504]	; (8000a4c <dispatchCommEvents+0x234>)
 8000852:	f104 0008 	add.w	r0, r4, #8
 8000856:	f005 fbf2 	bl	800603e <strcat>
 800085a:	f004 f965 	bl	8004b28 <getDeviceId>
 800085e:	4601      	mov	r1, r0
 8000860:	f104 0008 	add.w	r0, r4, #8
 8000864:	f000 fa89 	bl	8000d7a <strcatUInt32Hex>
 8000868:	4979      	ldr	r1, [pc, #484]	; (8000a50 <dispatchCommEvents+0x238>)
 800086a:	487a      	ldr	r0, [pc, #488]	; (8000a54 <dispatchCommEvents+0x23c>)
 800086c:	f005 fbe7 	bl	800603e <strcat>
 8000870:	f003 feb0 	bl	80045d4 <transmitComm>
 8000874:	e07e      	b.n	8000974 <dispatchCommEvents+0x15c>
 8000876:	4878      	ldr	r0, [pc, #480]	; (8000a58 <dispatchCommEvents+0x240>)
 8000878:	f7ff ff54 	bl	8000724 <matchCommCommand>
 800087c:	b118      	cbz	r0, 8000886 <dispatchCommEvents+0x6e>
 800087e:	f003 fdb7 	bl	80043f0 <getDeviceBatteryVoltage>
 8000882:	2103      	movs	r1, #3
 8000884:	e006      	b.n	8000894 <dispatchCommEvents+0x7c>
 8000886:	4875      	ldr	r0, [pc, #468]	; (8000a5c <dispatchCommEvents+0x244>)
 8000888:	f7ff ff4c 	bl	8000724 <matchCommCommand>
 800088c:	b128      	cbz	r0, 800089a <dispatchCommEvents+0x82>
 800088e:	f003 fdbb 	bl	8004408 <getDeviceTemperature>
 8000892:	4631      	mov	r1, r6
 8000894:	f7ff ff74 	bl	8000780 <sendCommOkWithFloat>
 8000898:	e7e6      	b.n	8000868 <dispatchCommEvents+0x50>
 800089a:	4871      	ldr	r0, [pc, #452]	; (8000a60 <dispatchCommEvents+0x248>)
 800089c:	f7ff ff42 	bl	8000724 <matchCommCommand>
 80008a0:	b120      	cbz	r0, 80008ac <dispatchCommEvents+0x94>
 80008a2:	f004 f8f7 	bl	8004a94 <getDeviceTime>
 80008a6:	f7ff ff57 	bl	8000758 <sendCommOkWithUInt32>
 80008aa:	e7dd      	b.n	8000868 <dispatchCommEvents+0x50>
 80008ac:	4669      	mov	r1, sp
 80008ae:	486d      	ldr	r0, [pc, #436]	; (8000a64 <dispatchCommEvents+0x24c>)
 80008b0:	f7ff ff90 	bl	80007d4 <matchCommCommandWithUInt32>
 80008b4:	b128      	cbz	r0, 80008c2 <dispatchCommEvents+0xaa>
 80008b6:	9800      	ldr	r0, [sp, #0]
 80008b8:	f004 f852 	bl	8004960 <setDeviceTime>
 80008bc:	f7ff ff44 	bl	8000748 <sendCommOk>
 80008c0:	e7d2      	b.n	8000868 <dispatchCommEvents+0x50>
 80008c2:	4869      	ldr	r0, [pc, #420]	; (8000a68 <dispatchCommEvents+0x250>)
 80008c4:	f7ff ff2e 	bl	8000724 <matchCommCommand>
 80008c8:	b110      	cbz	r0, 80008d0 <dispatchCommEvents+0xb8>
 80008ca:	f002 febd 	bl	8003648 <getTubeTime>
 80008ce:	e7ea      	b.n	80008a6 <dispatchCommEvents+0x8e>
 80008d0:	4669      	mov	r1, sp
 80008d2:	4866      	ldr	r0, [pc, #408]	; (8000a6c <dispatchCommEvents+0x254>)
 80008d4:	f7ff ff7e 	bl	80007d4 <matchCommCommandWithUInt32>
 80008d8:	b118      	cbz	r0, 80008e2 <dispatchCommEvents+0xca>
 80008da:	9800      	ldr	r0, [sp, #0]
 80008dc:	f002 feae 	bl	800363c <setTubeTime>
 80008e0:	e7ec      	b.n	80008bc <dispatchCommEvents+0xa4>
 80008e2:	4863      	ldr	r0, [pc, #396]	; (8000a70 <dispatchCommEvents+0x258>)
 80008e4:	f7ff ff1e 	bl	8000724 <matchCommCommand>
 80008e8:	b110      	cbz	r0, 80008f0 <dispatchCommEvents+0xd8>
 80008ea:	f002 feb9 	bl	8003660 <getTubePulseCount>
 80008ee:	e7da      	b.n	80008a6 <dispatchCommEvents+0x8e>
 80008f0:	4669      	mov	r1, sp
 80008f2:	4860      	ldr	r0, [pc, #384]	; (8000a74 <dispatchCommEvents+0x25c>)
 80008f4:	f7ff ff6e 	bl	80007d4 <matchCommCommandWithUInt32>
 80008f8:	b118      	cbz	r0, 8000902 <dispatchCommEvents+0xea>
 80008fa:	9800      	ldr	r0, [sp, #0]
 80008fc:	f002 feaa 	bl	8003654 <setTubePulseCount>
 8000900:	e7dc      	b.n	80008bc <dispatchCommEvents+0xa4>
 8000902:	485d      	ldr	r0, [pc, #372]	; (8000a78 <dispatchCommEvents+0x260>)
 8000904:	f7ff ff0e 	bl	8000724 <matchCommCommand>
 8000908:	b128      	cbz	r0, 8000916 <dispatchCommEvents+0xfe>
 800090a:	f002 fe79 	bl	8003600 <getInstantaneousRate>
 800090e:	495b      	ldr	r1, [pc, #364]	; (8000a7c <dispatchCommEvents+0x264>)
 8000910:	f003 fdc0 	bl	8004494 <__aeabi_fmul>
 8000914:	e7b5      	b.n	8000882 <dispatchCommEvents+0x6a>
 8000916:	485a      	ldr	r0, [pc, #360]	; (8000a80 <dispatchCommEvents+0x268>)
 8000918:	f7ff ff04 	bl	8000724 <matchCommCommand>
 800091c:	b118      	cbz	r0, 8000926 <dispatchCommEvents+0x10e>
 800091e:	f001 fad7 	bl	8001ed0 <getTubeDeadTime>
 8000922:	2107      	movs	r1, #7
 8000924:	e7b6      	b.n	8000894 <dispatchCommEvents+0x7c>
 8000926:	4857      	ldr	r0, [pc, #348]	; (8000a84 <dispatchCommEvents+0x26c>)
 8000928:	f7ff fefc 	bl	8000724 <matchCommCommand>
 800092c:	b110      	cbz	r0, 8000934 <dispatchCommEvents+0x11c>
 800092e:	f004 fbf3 	bl	8005118 <getTubeConversionFactor>
 8000932:	e7a6      	b.n	8000882 <dispatchCommEvents+0x6a>
 8000934:	4854      	ldr	r0, [pc, #336]	; (8000a88 <dispatchCommEvents+0x270>)
 8000936:	f7ff fef5 	bl	8000724 <matchCommCommand>
 800093a:	4604      	mov	r4, r0
 800093c:	b110      	cbz	r0, 8000944 <dispatchCommEvents+0x12c>
 800093e:	f004 fc09 	bl	8005154 <getTubeDeadTimeCompensation>
 8000942:	e7ee      	b.n	8000922 <dispatchCommEvents+0x10a>
 8000944:	4851      	ldr	r0, [pc, #324]	; (8000a8c <dispatchCommEvents+0x274>)
 8000946:	f7ff feed 	bl	8000724 <matchCommCommand>
 800094a:	b118      	cbz	r0, 8000954 <dispatchCommEvents+0x13c>
 800094c:	f004 fc1c 	bl	8005188 <getTubeHVFrequency>
 8000950:	4621      	mov	r1, r4
 8000952:	e79f      	b.n	8000894 <dispatchCommEvents+0x7c>
 8000954:	484e      	ldr	r0, [pc, #312]	; (8000a90 <dispatchCommEvents+0x278>)
 8000956:	f7ff fee5 	bl	8000724 <matchCommCommand>
 800095a:	b118      	cbz	r0, 8000964 <dispatchCommEvents+0x14c>
 800095c:	f004 fc36 	bl	80051cc <getTubeHVDutyCycle>
 8000960:	2104      	movs	r1, #4
 8000962:	e797      	b.n	8000894 <dispatchCommEvents+0x7c>
 8000964:	494b      	ldr	r1, [pc, #300]	; (8000a94 <dispatchCommEvents+0x27c>)
 8000966:	484c      	ldr	r0, [pc, #304]	; (8000a98 <dispatchCommEvents+0x280>)
 8000968:	f7ff ff34 	bl	80007d4 <matchCommCommandWithUInt32>
 800096c:	4606      	mov	r6, r0
 800096e:	b120      	cbz	r0, 800097a <dispatchCommEvents+0x162>
 8000970:	f7ff ff1a 	bl	80007a8 <startDatalogDumpTemp>
 8000974:	b003      	add	sp, #12
 8000976:	e8bd 83f0 	ldmia.w	sp!, {r4, r5, r6, r7, r8, r9, pc}
 800097a:	4847      	ldr	r0, [pc, #284]	; (8000a98 <dispatchCommEvents+0x280>)
 800097c:	f7ff fed2 	bl	8000724 <matchCommCommand>
 8000980:	4604      	mov	r4, r0
 8000982:	b108      	cbz	r0, 8000988 <dispatchCommEvents+0x170>
 8000984:	64ee      	str	r6, [r5, #76]	; 0x4c
 8000986:	e7f3      	b.n	8000970 <dispatchCommEvents+0x158>
 8000988:	4844      	ldr	r0, [pc, #272]	; (8000a9c <dispatchCommEvents+0x284>)
 800098a:	f7ff fecb 	bl	8000724 <matchCommCommand>
 800098e:	b1a8      	cbz	r0, 80009bc <dispatchCommEvents+0x1a4>
 8000990:	f7ff feda 	bl	8000748 <sendCommOk>
 8000994:	4f2c      	ldr	r7, [pc, #176]	; (8000a48 <dispatchCommEvents+0x230>)
 8000996:	4d2f      	ldr	r5, [pc, #188]	; (8000a54 <dispatchCommEvents+0x23c>)
 8000998:	f003 f842 	bl	8003a20 <getRandomData>
 800099c:	1e06      	subs	r6, r0, #0
 800099e:	f6ff af63 	blt.w	8000868 <dispatchCommEvents+0x50>
 80009a2:	b91c      	cbnz	r4, 80009ac <dispatchCommEvents+0x194>
 80009a4:	4639      	mov	r1, r7
 80009a6:	4628      	mov	r0, r5
 80009a8:	f005 fb49 	bl	800603e <strcat>
 80009ac:	b2f1      	uxtb	r1, r6
 80009ae:	4628      	mov	r0, r5
 80009b0:	3401      	adds	r4, #1
 80009b2:	f000 f9bf 	bl	8000d34 <strcatUInt8Hex>
 80009b6:	2c10      	cmp	r4, #16
 80009b8:	d1ee      	bne.n	8000998 <dispatchCommEvents+0x180>
 80009ba:	e755      	b.n	8000868 <dispatchCommEvents+0x50>
 80009bc:	4938      	ldr	r1, [pc, #224]	; (8000aa0 <dispatchCommEvents+0x288>)
 80009be:	4825      	ldr	r0, [pc, #148]	; (8000a54 <dispatchCommEvents+0x23c>)
 80009c0:	f005 fb4c 	bl	800605c <strcpy>
 80009c4:	e750      	b.n	8000868 <dispatchCommEvents+0x50>
 80009c6:	7863      	ldrb	r3, [r4, #1]
 80009c8:	2b03      	cmp	r3, #3
 80009ca:	d1d3      	bne.n	8000974 <dispatchCommEvents+0x15c>
 80009cc:	f894 3049 	ldrb.w	r3, [r4, #73]	; 0x49
 80009d0:	b383      	cbz	r3, 8000a34 <dispatchCommEvents+0x21c>
 80009d2:	f104 0008 	add.w	r0, r4, #8
 80009d6:	4933      	ldr	r1, [pc, #204]	; (8000aa4 <dispatchCommEvents+0x28c>)
 80009d8:	f005 fb40 	bl	800605c <strcpy>
 80009dc:	2600      	movs	r6, #0
 80009de:	f8df 906c 	ldr.w	r9, [pc, #108]	; 8000a4c <dispatchCommEvents+0x234>
 80009e2:	f8df 80c4 	ldr.w	r8, [pc, #196]	; 8000aa8 <dispatchCommEvents+0x290>
 80009e6:	3408      	adds	r4, #8
 80009e8:	4668      	mov	r0, sp
 80009ea:	f000 fb97 	bl	800111c <getDatalogDownloadEntry>
 80009ee:	4607      	mov	r7, r0
 80009f0:	b930      	cbnz	r0, 8000a00 <dispatchCommEvents+0x1e8>
 80009f2:	4917      	ldr	r1, [pc, #92]	; (8000a50 <dispatchCommEvents+0x238>)
 80009f4:	4817      	ldr	r0, [pc, #92]	; (8000a54 <dispatchCommEvents+0x23c>)
 80009f6:	f005 fb22 	bl	800603e <strcat>
 80009fa:	f885 7049 	strb.w	r7, [r5, #73]	; 0x49
 80009fe:	e737      	b.n	8000870 <dispatchCommEvents+0x58>
 8000a00:	9f00      	ldr	r7, [sp, #0]
 8000a02:	6ceb      	ldr	r3, [r5, #76]	; 0x4c
 8000a04:	429f      	cmp	r7, r3
 8000a06:	d3ef      	bcc.n	80009e8 <dispatchCommEvents+0x1d0>
 8000a08:	4649      	mov	r1, r9
 8000a0a:	4620      	mov	r0, r4
 8000a0c:	f005 fb17 	bl	800603e <strcat>
 8000a10:	2200      	movs	r2, #0
 8000a12:	4639      	mov	r1, r7
 8000a14:	4620      	mov	r0, r4
 8000a16:	f000 f849 	bl	8000aac <strcatUInt32>
 8000a1a:	4641      	mov	r1, r8
 8000a1c:	4620      	mov	r0, r4
 8000a1e:	f005 fb0e 	bl	800603e <strcat>
 8000a22:	3601      	adds	r6, #1
 8000a24:	2200      	movs	r2, #0
 8000a26:	9901      	ldr	r1, [sp, #4]
 8000a28:	4620      	mov	r0, r4
 8000a2a:	f000 f83f 	bl	8000aac <strcatUInt32>
 8000a2e:	2e02      	cmp	r6, #2
 8000a30:	d1da      	bne.n	80009e8 <dispatchCommEvents+0x1d0>
 8000a32:	e71d      	b.n	8000870 <dispatchCommEvents+0x58>
 8000a34:	6063      	str	r3, [r4, #4]
 8000a36:	7063      	strb	r3, [r4, #1]
 8000a38:	e79c      	b.n	8000974 <dispatchCommEvents+0x15c>
 8000a3a:	bf00      	nop
 8000a3c:	20000c7c 	andcs	r0, r0, ip, ror ip
 8000a40:	080061a0 	stmdaeq	r0, {r5, r7, r8, sp, lr}
 8000a44:	0800755c 	stmdaeq	r0, {r2, r3, r4, r6, r8, sl, ip, sp, lr}
 8000a48:	08006506 	stmdaeq	r0, {r1, r2, r8, sl, sp, lr}
 8000a4c:	080061ad 	stmdaeq	r0, {r0, r2, r3, r5, r7, r8, sp, lr}
 8000a50:	080062d9 	stmdaeq	r0, {r0, r3, r4, r6, r7, r9, sp, lr}
 8000a54:	20000c84 	andcs	r0, r0, r4, lsl #25
 8000a58:	080061af 	stmdaeq	r0, {r0, r1, r2, r3, r5, r7, r8, sp, lr}
 8000a5c:	080061c8 	stmdaeq	r0, {r3, r6, r7, r8, sp, lr}
 8000a60:	080061de 	stmdaeq	r0, {r1, r2, r3, r4, r6, r7, r8, sp, lr}
 8000a64:	080061ed 	stmdaeq	r0, {r0, r2, r3, r5, r6, r7, r8, sp, lr}
 8000a68:	080061fc 	stmdaeq	r0, {r2, r3, r4, r5, r6, r7, r8, sp, lr}
 8000a6c:	08006209 	stmdaeq	r0, {r0, r3, r9, sp, lr}
 8000a70:	08006216 	stmdaeq	r0, {r1, r2, r4, r9, sp, lr}
 8000a74:	08006229 	stmdaeq	r0, {r0, r3, r5, r9, sp, lr}
 8000a78:	0800623c 	stmdaeq	r0, {r2, r3, r4, r5, r9, sp, lr}
 8000a7c:	42700000 	rsbsmi	r0, r0, #0
 8000a80:	08006249 	stmdaeq	r0, {r0, r3, r6, r9, sp, lr}
 8000a84:	0800625a 	stmdaeq	r0, {r1, r3, r4, r6, r9, sp, lr}
 8000a88:	08006273 	stmdaeq	r0, {r0, r1, r4, r5, r6, r9, sp, lr}
 8000a8c:	08006290 	stmdaeq	r0, {r4, r7, r9, sp, lr}
 8000a90:	080062a4 	stmdaeq	r0, {r2, r5, r7, r9, sp, lr}
 8000a94:	20000cc8 	andcs	r0, r0, r8, asr #25
 8000a98:	080062b8 	stmdaeq	r0, {r3, r4, r5, r7, r9, sp, lr}
 8000a9c:	080062c4 	stmdaeq	r0, {r2, r6, r7, r9, sp, lr}
 8000aa0:	080062d3 	stmdaeq	r0, {r0, r1, r4, r6, r7, r9, sp, lr}
 8000aa4:	080062da 	stmdaeq	r0, {r1, r3, r4, r6, r7, r9, sp, lr}
 8000aa8:	080062db 	stmdaeq	r0, {r0, r1, r3, r4, r6, r7, r9, sp, lr}

08000aac <strcatUInt32>:
 8000aac:	b570      	push	{r4, r5, r6, lr}
 8000aae:	460c      	mov	r4, r1
 8000ab0:	4605      	mov	r5, r0
 8000ab2:	4616      	mov	r6, r2
 8000ab4:	f7ff fd84 	bl	80005c0 <strlen>
 8000ab8:	4621      	mov	r1, r4
 8000aba:	2300      	movs	r3, #0
 8000abc:	220a      	movs	r2, #10
 8000abe:	4428      	add	r0, r5
 8000ac0:	fbb1 f1f2 	udiv	r1, r1, r2
 8000ac4:	3301      	adds	r3, #1
 8000ac6:	2900      	cmp	r1, #0
 8000ac8:	d1fa      	bne.n	8000ac0 <strcatUInt32+0x14>
 8000aca:	42b3      	cmp	r3, r6
 8000acc:	bf38      	it	cc
 8000ace:	4633      	movcc	r3, r6
 8000ad0:	210a      	movs	r1, #10
 8000ad2:	1e5a      	subs	r2, r3, #1
 8000ad4:	2a00      	cmp	r2, #0
 8000ad6:	da02      	bge.n	8000ade <strcatUInt32+0x32>
 8000ad8:	2200      	movs	r2, #0
 8000ada:	54c2      	strb	r2, [r0, r3]
 8000adc:	bd70      	pop	{r4, r5, r6, pc}
 8000ade:	fbb4 f5f1 	udiv	r5, r4, r1
 8000ae2:	fb01 4415 	mls	r4, r1, r5, r4
 8000ae6:	3430      	adds	r4, #48	; 0x30
 8000ae8:	5484      	strb	r4, [r0, r2]
 8000aea:	462c      	mov	r4, r5
 8000aec:	3a01      	subs	r2, #1
 8000aee:	e7f1      	b.n	8000ad4 <strcatUInt32+0x28>

08000af0 <parseUInt32>:
 8000af0:	b570      	push	{r4, r5, r6, lr}
 8000af2:	2200      	movs	r2, #0
 8000af4:	240a      	movs	r4, #10
 8000af6:	4d09      	ldr	r5, [pc, #36]	; (8000b1c <parseUInt32+0x2c>)
 8000af8:	f810 3b01 	ldrb.w	r3, [r0], #1
 8000afc:	2b1f      	cmp	r3, #31
 8000afe:	d802      	bhi.n	8000b06 <parseUInt32+0x16>
 8000b00:	2001      	movs	r0, #1
 8000b02:	600a      	str	r2, [r1, #0]
 8000b04:	bd70      	pop	{r4, r5, r6, pc}
 8000b06:	3b30      	subs	r3, #48	; 0x30
 8000b08:	b2de      	uxtb	r6, r3
 8000b0a:	2e09      	cmp	r6, #9
 8000b0c:	d804      	bhi.n	8000b18 <parseUInt32+0x28>
 8000b0e:	42aa      	cmp	r2, r5
 8000b10:	d802      	bhi.n	8000b18 <parseUInt32+0x28>
 8000b12:	fb04 3202 	mla	r2, r4, r2, r3
 8000b16:	e7ef      	b.n	8000af8 <parseUInt32+0x8>
 8000b18:	2000      	movs	r0, #0
 8000b1a:	e7f3      	b.n	8000b04 <parseUInt32+0x14>
 8000b1c:	19999999 	ldmibne	r9, {r0, r3, r4, r7, r8, fp, ip, pc}

08000b20 <strcatTime>:
 8000b20:	233c      	movs	r3, #60	; 0x3c
 8000b22:	fbb1 f2f3 	udiv	r2, r1, r3
 8000b26:	b570      	push	{r4, r5, r6, lr}
 8000b28:	fbb2 f5f3 	udiv	r5, r2, r3
 8000b2c:	fb03 1612 	mls	r6, r3, r2, r1
 8000b30:	fb03 2515 	mls	r5, r3, r5, r2
 8000b34:	f44f 6361 	mov.w	r3, #3600	; 0xe10
 8000b38:	fbb1 f1f3 	udiv	r1, r1, r3
 8000b3c:	4604      	mov	r4, r0
 8000b3e:	b131      	cbz	r1, 8000b4e <strcatTime+0x2e>
 8000b40:	2200      	movs	r2, #0
 8000b42:	f7ff ffb3 	bl	8000aac <strcatUInt32>
 8000b46:	490a      	ldr	r1, [pc, #40]	; (8000b70 <strcatTime+0x50>)
 8000b48:	4620      	mov	r0, r4
 8000b4a:	f005 fa78 	bl	800603e <strcat>
 8000b4e:	2202      	movs	r2, #2
 8000b50:	4629      	mov	r1, r5
 8000b52:	4620      	mov	r0, r4
 8000b54:	f7ff ffaa 	bl	8000aac <strcatUInt32>
 8000b58:	4905      	ldr	r1, [pc, #20]	; (8000b70 <strcatTime+0x50>)
 8000b5a:	4620      	mov	r0, r4
 8000b5c:	f005 fa6f 	bl	800603e <strcat>
 8000b60:	4631      	mov	r1, r6
 8000b62:	4620      	mov	r0, r4
 8000b64:	e8bd 4070 	ldmia.w	sp!, {r4, r5, r6, lr}
 8000b68:	2202      	movs	r2, #2
 8000b6a:	f7ff bf9f 	b.w	8000aac <strcatUInt32>
 8000b6e:	bf00      	nop
 8000b70:	0800634f 	stmdaeq	r0, {r0, r1, r2, r3, r6, r8, r9, sp, lr}

08000b74 <strcatFloat>:
 8000b74:	e92d 43f8 	stmdb	sp!, {r3, r4, r5, r6, r7, r8, r9, lr}
 8000b78:	460c      	mov	r4, r1
 8000b7a:	4605      	mov	r5, r0
 8000b7c:	2100      	movs	r1, #0
 8000b7e:	4620      	mov	r0, r4
 8000b80:	4617      	mov	r7, r2
 8000b82:	f003 fc9d 	bl	80044c0 <__aeabi_fcmplt>
 8000b86:	b128      	cbz	r0, 8000b94 <strcatFloat+0x20>
 8000b88:	491d      	ldr	r1, [pc, #116]	; (8000c00 <strcatFloat+0x8c>)
 8000b8a:	4628      	mov	r0, r5
 8000b8c:	f104 4400 	add.w	r4, r4, #2147483648	; 0x80000000
 8000b90:	f005 fa55 	bl	800603e <strcat>
 8000b94:	463e      	mov	r6, r7
 8000b96:	2001      	movs	r0, #1
 8000b98:	230a      	movs	r3, #10
 8000b9a:	bb5e      	cbnz	r6, 8000bf4 <strcatFloat+0x80>
 8000b9c:	f003 fc7e 	bl	800449c <__aeabi_ui2f>
 8000ba0:	4601      	mov	r1, r0
 8000ba2:	4680      	mov	r8, r0
 8000ba4:	f04f 507c 	mov.w	r0, #1056964608	; 0x3f000000
 8000ba8:	f003 fc76 	bl	8004498 <__aeabi_fdiv>
 8000bac:	4621      	mov	r1, r4
 8000bae:	f003 fc6d 	bl	800448c <__aeabi_fadd>
 8000bb2:	4681      	mov	r9, r0
 8000bb4:	f003 fc7b 	bl	80044ae <__aeabi_f2uiz>
 8000bb8:	4632      	mov	r2, r6
 8000bba:	4604      	mov	r4, r0
 8000bbc:	4601      	mov	r1, r0
 8000bbe:	4628      	mov	r0, r5
 8000bc0:	f7ff ff74 	bl	8000aac <strcatUInt32>
 8000bc4:	b1cf      	cbz	r7, 8000bfa <strcatFloat+0x86>
 8000bc6:	490f      	ldr	r1, [pc, #60]	; (8000c04 <strcatFloat+0x90>)
 8000bc8:	4628      	mov	r0, r5
 8000bca:	f005 fa38 	bl	800603e <strcat>
 8000bce:	4620      	mov	r0, r4
 8000bd0:	f003 fc64 	bl	800449c <__aeabi_ui2f>
 8000bd4:	4601      	mov	r1, r0
 8000bd6:	4648      	mov	r0, r9
 8000bd8:	f003 fc5a 	bl	8004490 <__aeabi_fsub>
 8000bdc:	4641      	mov	r1, r8
 8000bde:	f003 fc59 	bl	8004494 <__aeabi_fmul>
 8000be2:	f003 fc64 	bl	80044ae <__aeabi_f2uiz>
 8000be6:	463a      	mov	r2, r7
 8000be8:	4601      	mov	r1, r0
 8000bea:	4628      	mov	r0, r5
 8000bec:	e8bd 43f8 	ldmia.w	sp!, {r3, r4, r5, r6, r7, r8, r9, lr}
 8000bf0:	f7ff bf5c 	b.w	8000aac <strcatUInt32>
 8000bf4:	4358      	muls	r0, r3
 8000bf6:	3e01      	subs	r6, #1
 8000bf8:	e7cf      	b.n	8000b9a <strcatFloat+0x26>
 8000bfa:	e8bd 83f8 	ldmia.w	sp!, {r3, r4, r5, r6, r7, r8, r9, pc}
 8000bfe:	bf00      	nop
 8000c00:	0800737b 	stmdaeq	r0, {r0, r1, r3, r4, r5, r6, r8, r9, ip, sp, lr}
 8000c04:	080072e7 	stmdaeq	r0, {r0, r1, r2, r5, r6, r7, r9, ip, sp, lr}

08000c08 <strcatFloatWithMetricPrefix>:
 8000c08:	e92d 41f0 	stmdb	sp!, {r4, r5, r6, r7, r8, lr}
 8000c0c:	f04f 080c 	mov.w	r8, #12
 8000c10:	4606      	mov	r6, r0
 8000c12:	460f      	mov	r7, r1
 8000c14:	4615      	mov	r5, r2
 8000c16:	4c1c      	ldr	r4, [pc, #112]	; (8000c88 <strcatFloatWithMetricPrefix+0x80>)
 8000c18:	fb08 4802 	mla	r8, r8, r2, r4
 8000c1c:	2d06      	cmp	r5, #6
 8000c1e:	d902      	bls.n	8000c26 <strcatFloatWithMetricPrefix+0x1e>
 8000c20:	2400      	movs	r4, #0
 8000c22:	2100      	movs	r1, #0
 8000c24:	e00d      	b.n	8000c42 <strcatFloatWithMetricPrefix+0x3a>
 8000c26:	f108 080c 	add.w	r8, r8, #12
 8000c2a:	4639      	mov	r1, r7
 8000c2c:	f858 0c08 	ldr.w	r0, [r8, #-8]
 8000c30:	f003 fc51 	bl	80044d6 <__aeabi_fcmpgt>
 8000c34:	b318      	cbz	r0, 8000c7e <strcatFloatWithMetricPrefix+0x76>
 8000c36:	230c      	movs	r3, #12
 8000c38:	fb03 f205 	mul.w	r2, r3, r5
 8000c3c:	58a1      	ldr	r1, [r4, r2]
 8000c3e:	3208      	adds	r2, #8
 8000c40:	4414      	add	r4, r2
 8000c42:	4638      	mov	r0, r7
 8000c44:	f003 fc28 	bl	8004498 <__aeabi_fdiv>
 8000c48:	4910      	ldr	r1, [pc, #64]	; (8000c8c <strcatFloatWithMetricPrefix+0x84>)
 8000c4a:	4605      	mov	r5, r0
 8000c4c:	f003 fc3d 	bl	80044ca <__aeabi_fcmpge>
 8000c50:	b9b8      	cbnz	r0, 8000c82 <strcatFloatWithMetricPrefix+0x7a>
 8000c52:	490f      	ldr	r1, [pc, #60]	; (8000c90 <strcatFloatWithMetricPrefix+0x88>)
 8000c54:	4628      	mov	r0, r5
 8000c56:	f003 fc38 	bl	80044ca <__aeabi_fcmpge>
 8000c5a:	2800      	cmp	r0, #0
 8000c5c:	bf14      	ite	ne
 8000c5e:	2202      	movne	r2, #2
 8000c60:	2203      	moveq	r2, #3
 8000c62:	4629      	mov	r1, r5
 8000c64:	4630      	mov	r0, r6
 8000c66:	f7ff ff85 	bl	8000b74 <strcatFloat>
 8000c6a:	490a      	ldr	r1, [pc, #40]	; (8000c94 <strcatFloatWithMetricPrefix+0x8c>)
 8000c6c:	4630      	mov	r0, r6
 8000c6e:	f005 f9e6 	bl	800603e <strcat>
 8000c72:	4621      	mov	r1, r4
 8000c74:	4630      	mov	r0, r6
 8000c76:	e8bd 41f0 	ldmia.w	sp!, {r4, r5, r6, r7, r8, lr}
 8000c7a:	f005 b9e0 	b.w	800603e <strcat>
 8000c7e:	3501      	adds	r5, #1
 8000c80:	e7cc      	b.n	8000c1c <strcatFloatWithMetricPrefix+0x14>
 8000c82:	2201      	movs	r2, #1
 8000c84:	e7ed      	b.n	8000c62 <strcatFloatWithMetricPrefix+0x5a>
 8000c86:	bf00      	nop
 8000c88:	080062f8 	stmdaeq	r0, {r3, r4, r5, r6, r7, r9, sp, lr}
 8000c8c:	42c7fd71 	sbcmi	pc, r7, #7232	; 0x1c40
 8000c90:	411ffdf4 			; <UNDEFINED> instruction: 0x411ffdf4
 8000c94:	08006506 	stmdaeq	r0, {r1, r2, r8, sl, sp, lr}

08000c98 <strcatDecimalPowerWithMetricPrefix>:
 8000c98:	1d8b      	adds	r3, r1, #6
 8000c9a:	e92d 41f0 	stmdb	sp!, {r4, r5, r6, r7, r8, lr}
 8000c9e:	4606      	mov	r6, r0
 8000ca0:	460c      	mov	r4, r1
 8000ca2:	da24      	bge.n	8000cee <strcatDecimalPowerWithMetricPrefix+0x56>
 8000ca4:	491e      	ldr	r1, [pc, #120]	; (8000d20 <strcatDecimalPowerWithMetricPrefix+0x88>)
 8000ca6:	f005 f9ca 	bl	800603e <strcat>
 8000caa:	2500      	movs	r5, #0
 8000cac:	f1c4 24ff 	rsb	r4, r4, #4278255360	; 0xff00ff00
 8000cb0:	f504 047f 	add.w	r4, r4, #16711680	; 0xff0000
 8000cb4:	4f1b      	ldr	r7, [pc, #108]	; (8000d24 <strcatDecimalPowerWithMetricPrefix+0x8c>)
 8000cb6:	34f9      	adds	r4, #249	; 0xf9
 8000cb8:	42ac      	cmp	r4, r5
 8000cba:	dc12      	bgt.n	8000ce2 <strcatDecimalPowerWithMetricPrefix+0x4a>
 8000cbc:	491a      	ldr	r1, [pc, #104]	; (8000d28 <strcatDecimalPowerWithMetricPrefix+0x90>)
 8000cbe:	4630      	mov	r0, r6
 8000cc0:	f005 f9bd 	bl	800603e <strcat>
 8000cc4:	2400      	movs	r4, #0
 8000cc6:	4919      	ldr	r1, [pc, #100]	; (8000d2c <strcatDecimalPowerWithMetricPrefix+0x94>)
 8000cc8:	4630      	mov	r0, r6
 8000cca:	f005 f9b8 	bl	800603e <strcat>
 8000cce:	230c      	movs	r3, #12
 8000cd0:	4917      	ldr	r1, [pc, #92]	; (8000d30 <strcatDecimalPowerWithMetricPrefix+0x98>)
 8000cd2:	4630      	mov	r0, r6
 8000cd4:	fb03 1104 	mla	r1, r3, r4, r1
 8000cd8:	e8bd 41f0 	ldmia.w	sp!, {r4, r5, r6, r7, r8, lr}
 8000cdc:	3108      	adds	r1, #8
 8000cde:	f005 b9ae 	b.w	800603e <strcat>
 8000ce2:	4639      	mov	r1, r7
 8000ce4:	4630      	mov	r0, r6
 8000ce6:	f005 f9aa 	bl	800603e <strcat>
 8000cea:	3501      	adds	r5, #1
 8000cec:	e7e4      	b.n	8000cb8 <strcatDecimalPowerWithMetricPrefix+0x20>
 8000cee:	2403      	movs	r4, #3
 8000cf0:	1d8b      	adds	r3, r1, #6
 8000cf2:	fbb3 f4f4 	udiv	r4, r3, r4
 8000cf6:	2c06      	cmp	r4, #6
 8000cf8:	bf28      	it	cs
 8000cfa:	2406      	movcs	r4, #6
 8000cfc:	490a      	ldr	r1, [pc, #40]	; (8000d28 <strcatDecimalPowerWithMetricPrefix+0x90>)
 8000cfe:	eb04 0544 	add.w	r5, r4, r4, lsl #1
 8000d02:	1b5d      	subs	r5, r3, r5
 8000d04:	2700      	movs	r7, #0
 8000d06:	f005 f99a 	bl	800603e <strcat>
 8000d0a:	f8df 8018 	ldr.w	r8, [pc, #24]	; 8000d24 <strcatDecimalPowerWithMetricPrefix+0x8c>
 8000d0e:	42af      	cmp	r7, r5
 8000d10:	dad9      	bge.n	8000cc6 <strcatDecimalPowerWithMetricPrefix+0x2e>
 8000d12:	4641      	mov	r1, r8
 8000d14:	4630      	mov	r0, r6
 8000d16:	f005 f992 	bl	800603e <strcat>
 8000d1a:	3701      	adds	r7, #1
 8000d1c:	e7f7      	b.n	8000d0e <strcatDecimalPowerWithMetricPrefix+0x76>
 8000d1e:	bf00      	nop
 8000d20:	0800634c 	stmdaeq	r0, {r2, r3, r6, r8, r9, sp, lr}
 8000d24:	0800766c 	stmdaeq	r0, {r2, r3, r5, r6, r9, sl, ip, sp, lr}
 8000d28:	08007665 	stmdaeq	r0, {r0, r2, r5, r6, r9, sl, ip, sp, lr}
 8000d2c:	08006506 	stmdaeq	r0, {r1, r2, r8, sl, sp, lr}
 8000d30:	080062f8 	stmdaeq	r0, {r3, r4, r5, r6, r7, r9, sp, lr}

08000d34 <strcatUInt8Hex>:
 8000d34:	b538      	push	{r3, r4, r5, lr}
 8000d36:	460c      	mov	r4, r1
 8000d38:	4605      	mov	r5, r0
 8000d3a:	f7ff fc41 	bl	80005c0 <strlen>
 8000d3e:	0923      	lsrs	r3, r4, #4
 8000d40:	2b09      	cmp	r3, #9
 8000d42:	bf94      	ite	ls
 8000d44:	3330      	addls	r3, #48	; 0x30
 8000d46:	3357      	addhi	r3, #87	; 0x57
 8000d48:	542b      	strb	r3, [r5, r0]
 8000d4a:	2300      	movs	r3, #0
 8000d4c:	f004 010f 	and.w	r1, r4, #15
 8000d50:	2909      	cmp	r1, #9
 8000d52:	eb05 0200 	add.w	r2, r5, r0
 8000d56:	bf94      	ite	ls
 8000d58:	3130      	addls	r1, #48	; 0x30
 8000d5a:	3157      	addhi	r1, #87	; 0x57
 8000d5c:	7051      	strb	r1, [r2, #1]
 8000d5e:	7093      	strb	r3, [r2, #2]
 8000d60:	bd38      	pop	{r3, r4, r5, pc}

08000d62 <strcatUInt16Hex>:
 8000d62:	b538      	push	{r3, r4, r5, lr}
 8000d64:	4605      	mov	r5, r0
 8000d66:	460c      	mov	r4, r1
 8000d68:	0a09      	lsrs	r1, r1, #8
 8000d6a:	f7ff ffe3 	bl	8000d34 <strcatUInt8Hex>
 8000d6e:	b2e1      	uxtb	r1, r4
 8000d70:	4628      	mov	r0, r5
 8000d72:	e8bd 4038 	ldmia.w	sp!, {r3, r4, r5, lr}
 8000d76:	f7ff bfdd 	b.w	8000d34 <strcatUInt8Hex>

08000d7a <strcatUInt32Hex>:
 8000d7a:	b538      	push	{r3, r4, r5, lr}
 8000d7c:	4605      	mov	r5, r0
 8000d7e:	460c      	mov	r4, r1
 8000d80:	0c09      	lsrs	r1, r1, #16
 8000d82:	f7ff ffee 	bl	8000d62 <strcatUInt16Hex>
 8000d86:	b2a1      	uxth	r1, r4
 8000d88:	4628      	mov	r0, r5
 8000d8a:	e8bd 4038 	ldmia.w	sp!, {r3, r4, r5, lr}
 8000d8e:	f7ff bfe8 	b.w	8000d62 <strcatUInt16Hex>

08000d92 <encodeDatalogValue>:
 8000d92:	b530      	push	{r4, r5, lr}
 8000d94:	2401      	movs	r4, #1
 8000d96:	f102 5200 	add.w	r2, r2, #536870912	; 0x20000000
 8000d9a:	3a01      	subs	r2, #1
 8000d9c:	fa04 f303 	lsl.w	r3, r4, r3
 8000da0:	00d2      	lsls	r2, r2, #3
 8000da2:	1e5d      	subs	r5, r3, #1
 8000da4:	fa40 f402 	asr.w	r4, r0, r2
 8000da8:	402c      	ands	r4, r5
 8000daa:	425b      	negs	r3, r3
 8000dac:	ea44 0343 	orr.w	r3, r4, r3, lsl #1
 8000db0:	700b      	strb	r3, [r1, #0]
 8000db2:	3a08      	subs	r2, #8
 8000db4:	f112 0f08 	cmn.w	r2, #8
 8000db8:	d100      	bne.n	8000dbc <encodeDatalogValue+0x2a>
 8000dba:	bd30      	pop	{r4, r5, pc}
 8000dbc:	fa40 f302 	asr.w	r3, r0, r2
 8000dc0:	f801 3f01 	strb.w	r3, [r1, #1]!
 8000dc4:	e7f5      	b.n	8000db2 <encodeDatalogValue+0x20>
	...

08000dc8 <onDatalogMenuGetOption>:
 8000dc8:	4b05      	ldr	r3, [pc, #20]	; (8000de0 <onDatalogMenuGetOption+0x18>)
 8000dca:	681b      	ldr	r3, [r3, #0]
 8000dcc:	f3c3 3382 	ubfx	r3, r3, #14, #3
 8000dd0:	1a58      	subs	r0, r3, r1
 8000dd2:	4243      	negs	r3, r0
 8000dd4:	4143      	adcs	r3, r0
 8000dd6:	6013      	str	r3, [r2, #0]
 8000dd8:	4b02      	ldr	r3, [pc, #8]	; (8000de4 <onDatalogMenuGetOption+0x1c>)
 8000dda:	f853 0021 	ldr.w	r0, [r3, r1, lsl #2]
 8000dde:	4770      	bx	lr
 8000de0:	20000da0 	andcs	r0, r0, r0, lsr #27
 8000de4:	08006368 	stmdaeq	r0, {r3, r5, r6, r8, r9, sp, lr}

08000de8 <writeDatalogBuffer>:
 8000de8:	b570      	push	{r4, r5, r6, lr}
 8000dea:	4b0c      	ldr	r3, [pc, #48]	; (8000e1c <writeDatalogBuffer+0x34>)
 8000dec:	4d0c      	ldr	r5, [pc, #48]	; (8000e20 <writeDatalogBuffer+0x38>)
 8000dee:	681b      	ldr	r3, [r3, #0]
 8000df0:	6b28      	ldr	r0, [r5, #48]	; 0x30
 8000df2:	f105 0634 	add.w	r6, r5, #52	; 0x34
 8000df6:	18c4      	adds	r4, r0, r3
 8000df8:	3c01      	subs	r4, #1
 8000dfa:	fbb4 f4f3 	udiv	r4, r4, r3
 8000dfe:	435c      	muls	r4, r3
 8000e00:	21fe      	movs	r1, #254	; 0xfe
 8000e02:	1a22      	subs	r2, r4, r0
 8000e04:	4430      	add	r0, r6
 8000e06:	f005 f912 	bl	800602e <memset>
 8000e0a:	4622      	mov	r2, r4
 8000e0c:	4631      	mov	r1, r6
 8000e0e:	4628      	mov	r0, r5
 8000e10:	f001 f922 	bl	8002058 <writeFlashPage>
 8000e14:	2300      	movs	r3, #0
 8000e16:	632b      	str	r3, [r5, #48]	; 0x30
 8000e18:	bd70      	pop	{r4, r5, r6, pc}
 8000e1a:	bf00      	nop
 8000e1c:	08007594 	stmdaeq	r0, {r2, r4, r7, r8, sl, ip, sp, lr}
 8000e20:	20000090 	mulcs	r0, r0, r0

08000e24 <writeDatalogEntry>:
 8000e24:	e92d 41ff 	stmdb	sp!, {r0, r1, r2, r3, r4, r5, r6, r7, r8, lr}
 8000e28:	4b45      	ldr	r3, [pc, #276]	; (8000f40 <writeDatalogEntry+0x11c>)
 8000e2a:	4605      	mov	r5, r0
 8000e2c:	681a      	ldr	r2, [r3, #0]
 8000e2e:	4698      	mov	r8, r3
 8000e30:	f412 3fe0 	tst.w	r2, #114688	; 0x1c000
 8000e34:	d072      	beq.n	8000f1c <writeDatalogEntry+0xf8>
 8000e36:	4c43      	ldr	r4, [pc, #268]	; (8000f44 <writeDatalogEntry+0x120>)
 8000e38:	f894 3044 	ldrb.w	r3, [r4, #68]	; 0x44
 8000e3c:	2b00      	cmp	r3, #0
 8000e3e:	d16d      	bne.n	8000f1c <writeDatalogEntry+0xf8>
 8000e40:	f003 fe28 	bl	8004a94 <getDeviceTime>
 8000e44:	4607      	mov	r7, r0
 8000e46:	f002 fc0b 	bl	8003660 <getTubePulseCount>
 8000e4a:	4606      	mov	r6, r0
 8000e4c:	b16d      	cbz	r5, 8000e6a <writeDatalogEntry+0x46>
 8000e4e:	f8d8 2000 	ldr.w	r2, [r8]
 8000e52:	483d      	ldr	r0, [pc, #244]	; (8000f48 <writeDatalogEntry+0x124>)
 8000e54:	6923      	ldr	r3, [r4, #16]
 8000e56:	f3c2 3282 	ubfx	r2, r2, #14, #3
 8000e5a:	f830 2012 	ldrh.w	r2, [r0, r2, lsl #1]
 8000e5e:	1af9      	subs	r1, r7, r3
 8000e60:	4291      	cmp	r1, r2
 8000e62:	d35b      	bcc.n	8000f1c <writeDatalogEntry+0xf8>
 8000e64:	1c50      	adds	r0, r2, #1
 8000e66:	4288      	cmp	r0, r1
 8000e68:	d21a      	bcs.n	8000ea0 <writeDatalogEntry+0x7c>
 8000e6a:	e9c4 7604 	strd	r7, r6, [r4, #16]
 8000e6e:	f8d8 3000 	ldr.w	r3, [r8]
 8000e72:	2204      	movs	r2, #4
 8000e74:	f3c3 3382 	ubfx	r3, r3, #14, #3
 8000e78:	3b10      	subs	r3, #16
 8000e7a:	f88d 3004 	strb.w	r3, [sp, #4]
 8000e7e:	f10d 0105 	add.w	r1, sp, #5
 8000e82:	2308      	movs	r3, #8
 8000e84:	4638      	mov	r0, r7
 8000e86:	f7ff ff84 	bl	8000d92 <encodeDatalogValue>
 8000e8a:	2308      	movs	r3, #8
 8000e8c:	2204      	movs	r2, #4
 8000e8e:	f10d 0109 	add.w	r1, sp, #9
 8000e92:	4630      	mov	r0, r6
 8000e94:	f7ff ff7d 	bl	8000d92 <encodeDatalogValue>
 8000e98:	2509      	movs	r5, #9
 8000e9a:	f7ff ffa5 	bl	8000de8 <writeDatalogBuffer>
 8000e9e:	e02d      	b.n	8000efc <writeDatalogEntry+0xd8>
 8000ea0:	6960      	ldr	r0, [r4, #20]
 8000ea2:	4413      	add	r3, r2
 8000ea4:	1a30      	subs	r0, r6, r0
 8000ea6:	e9c4 3604 	strd	r3, r6, [r4, #16]
 8000eaa:	f100 6300 	add.w	r3, r0, #134217728	; 0x8000000
 8000eae:	f1b3 5f80 	cmp.w	r3, #268435456	; 0x10000000
 8000eb2:	d23a      	bcs.n	8000f2a <writeDatalogEntry+0x106>
 8000eb4:	f100 0340 	add.w	r3, r0, #64	; 0x40
 8000eb8:	2b7f      	cmp	r3, #127	; 0x7f
 8000eba:	d932      	bls.n	8000f22 <writeDatalogEntry+0xfe>
 8000ebc:	f500 5300 	add.w	r3, r0, #8192	; 0x2000
 8000ec0:	f5b3 4f80 	cmp.w	r3, #16384	; 0x4000
 8000ec4:	d32f      	bcc.n	8000f26 <writeDatalogEntry+0x102>
 8000ec6:	f500 1380 	add.w	r3, r0, #1048576	; 0x100000
 8000eca:	f5b3 1f00 	cmp.w	r3, #2097152	; 0x200000
 8000ece:	bf34      	ite	cc
 8000ed0:	2503      	movcc	r5, #3
 8000ed2:	2504      	movcs	r5, #4
 8000ed4:	f1c5 0308 	rsb	r3, r5, #8
 8000ed8:	462a      	mov	r2, r5
 8000eda:	a901      	add	r1, sp, #4
 8000edc:	f7ff ff59 	bl	8000d92 <encodeDatalogValue>
 8000ee0:	4a1a      	ldr	r2, [pc, #104]	; (8000f4c <writeDatalogEntry+0x128>)
 8000ee2:	6b23      	ldr	r3, [r4, #48]	; 0x30
 8000ee4:	6812      	ldr	r2, [r2, #0]
 8000ee6:	442b      	add	r3, r5
 8000ee8:	4293      	cmp	r3, r2
 8000eea:	d901      	bls.n	8000ef0 <writeDatalogEntry+0xcc>
 8000eec:	f7ff ff7c 	bl	8000de8 <writeDatalogBuffer>
 8000ef0:	4a17      	ldr	r2, [pc, #92]	; (8000f50 <writeDatalogEntry+0x12c>)
 8000ef2:	68a3      	ldr	r3, [r4, #8]
 8000ef4:	6812      	ldr	r2, [r2, #0]
 8000ef6:	442b      	add	r3, r5
 8000ef8:	4293      	cmp	r3, r2
 8000efa:	d8b8      	bhi.n	8000e6e <writeDatalogEntry+0x4a>
 8000efc:	6b23      	ldr	r3, [r4, #48]	; 0x30
 8000efe:	4815      	ldr	r0, [pc, #84]	; (8000f54 <writeDatalogEntry+0x130>)
 8000f00:	462a      	mov	r2, r5
 8000f02:	4418      	add	r0, r3
 8000f04:	a901      	add	r1, sp, #4
 8000f06:	f005 f887 	bl	8006018 <memcpy>
 8000f0a:	6b23      	ldr	r3, [r4, #48]	; 0x30
 8000f0c:	441d      	add	r5, r3
 8000f0e:	4b0f      	ldr	r3, [pc, #60]	; (8000f4c <writeDatalogEntry+0x128>)
 8000f10:	6325      	str	r5, [r4, #48]	; 0x30
 8000f12:	681b      	ldr	r3, [r3, #0]
 8000f14:	429d      	cmp	r5, r3
 8000f16:	d301      	bcc.n	8000f1c <writeDatalogEntry+0xf8>
 8000f18:	f7ff ff66 	bl	8000de8 <writeDatalogBuffer>
 8000f1c:	b004      	add	sp, #16
 8000f1e:	e8bd 81f0 	ldmia.w	sp!, {r4, r5, r6, r7, r8, pc}
 8000f22:	2501      	movs	r5, #1
 8000f24:	e7d6      	b.n	8000ed4 <writeDatalogEntry+0xb0>
 8000f26:	2502      	movs	r5, #2
 8000f28:	e7d4      	b.n	8000ed4 <writeDatalogEntry+0xb0>
 8000f2a:	23f0      	movs	r3, #240	; 0xf0
 8000f2c:	2204      	movs	r2, #4
 8000f2e:	f88d 3004 	strb.w	r3, [sp, #4]
 8000f32:	f10d 0105 	add.w	r1, sp, #5
 8000f36:	2308      	movs	r3, #8
 8000f38:	f7ff ff2b 	bl	8000d92 <encodeDatalogValue>
 8000f3c:	2505      	movs	r5, #5
 8000f3e:	e7cf      	b.n	8000ee0 <writeDatalogEntry+0xbc>
 8000f40:	20000da0 	andcs	r0, r0, r0, lsr #27
 8000f44:	20000090 	mulcs	r0, r0, r0
 8000f48:	0800638c 	stmdaeq	r0, {r2, r3, r7, r8, r9, sp, lr}
 8000f4c:	08007594 	stmdaeq	r0, {r2, r4, r7, r8, sl, ip, sp, lr}
 8000f50:	08007598 	stmdaeq	r0, {r3, r4, r7, r8, sl, ip, sp, lr}
 8000f54:	200000c4 	andcs	r0, r0, r4, asr #1

08000f58 <onDatalogMenuSelect>:
 8000f58:	b570      	push	{r4, r5, r6, lr}
 8000f5a:	6843      	ldr	r3, [r0, #4]
 8000f5c:	4c09      	ldr	r4, [pc, #36]	; (8000f84 <onDatalogMenuSelect+0x2c>)
 8000f5e:	885e      	ldrh	r6, [r3, #2]
 8000f60:	6825      	ldr	r5, [r4, #0]
 8000f62:	f3c5 3582 	ubfx	r5, r5, #14, #3
 8000f66:	b916      	cbnz	r6, 8000f6e <onDatalogMenuSelect+0x16>
 8000f68:	4630      	mov	r0, r6
 8000f6a:	f7ff ff5b 	bl	8000e24 <writeDatalogEntry>
 8000f6e:	6823      	ldr	r3, [r4, #0]
 8000f70:	f366 3390 	bfi	r3, r6, #14, #3
 8000f74:	6023      	str	r3, [r4, #0]
 8000f76:	b925      	cbnz	r5, 8000f82 <onDatalogMenuSelect+0x2a>
 8000f78:	4628      	mov	r0, r5
 8000f7a:	e8bd 4070 	ldmia.w	sp!, {r4, r5, r6, lr}
 8000f7e:	f7ff bf51 	b.w	8000e24 <writeDatalogEntry>
 8000f82:	bd70      	pop	{r4, r5, r6, pc}
 8000f84:	20000da0 	andcs	r0, r0, r0, lsr #27

08000f88 <decodeDatalogValue>:
 8000f88:	e92d 41f3 	stmdb	sp!, {r0, r1, r4, r5, r6, r7, r8, lr}
 8000f8c:	2600      	movs	r6, #0
 8000f8e:	4680      	mov	r8, r0
 8000f90:	460f      	mov	r7, r1
 8000f92:	4634      	mov	r4, r6
 8000f94:	f1c2 0228 	rsb	r2, r2, #40	; 0x28
 8000f98:	eba2 05c1 	sub.w	r5, r2, r1, lsl #3
 8000f9c:	2201      	movs	r2, #1
 8000f9e:	f10d 0107 	add.w	r1, sp, #7
 8000fa2:	4640      	mov	r0, r8
 8000fa4:	f003 fc2a 	bl	80047fc <readFlash>
 8000fa8:	3601      	adds	r6, #1
 8000faa:	f89d 3007 	ldrb.w	r3, [sp, #7]
 8000fae:	42b7      	cmp	r7, r6
 8000fb0:	ea43 2404 	orr.w	r4, r3, r4, lsl #8
 8000fb4:	d1f2      	bne.n	8000f9c <decodeDatalogValue+0x14>
 8000fb6:	fa04 f005 	lsl.w	r0, r4, r5
 8000fba:	4128      	asrs	r0, r5
 8000fbc:	b002      	add	sp, #8
 8000fbe:	e8bd 81f0 	ldmia.w	sp!, {r4, r5, r6, r7, r8, pc}
	...

08000fc4 <decodeDatalogEntry>:
 8000fc4:	b573      	push	{r0, r1, r4, r5, r6, lr}
 8000fc6:	4604      	mov	r4, r0
 8000fc8:	4b2d      	ldr	r3, [pc, #180]	; (8001080 <decodeDatalogEntry+0xbc>)
 8000fca:	4e2e      	ldr	r6, [pc, #184]	; (8001084 <decodeDatalogEntry+0xc0>)
 8000fcc:	681d      	ldr	r5, [r3, #0]
 8000fce:	68a3      	ldr	r3, [r4, #8]
 8000fd0:	42ab      	cmp	r3, r5
 8000fd2:	d306      	bcc.n	8000fe2 <decodeDatalogEntry+0x1e>
 8000fd4:	4630      	mov	r0, r6
 8000fd6:	f000 ffe3 	bl	8001fa0 <isFlashPageFull>
 8000fda:	b340      	cbz	r0, 800102e <decodeDatalogEntry+0x6a>
 8000fdc:	4630      	mov	r0, r6
 8000fde:	f001 f80c 	bl	8001ffa <setFlashPageNext>
 8000fe2:	2201      	movs	r2, #1
 8000fe4:	f10d 0107 	add.w	r1, sp, #7
 8000fe8:	4620      	mov	r0, r4
 8000fea:	f003 fc07 	bl	80047fc <readFlash>
 8000fee:	f89d 3007 	ldrb.w	r3, [sp, #7]
 8000ff2:	2bef      	cmp	r3, #239	; 0xef
 8000ff4:	d821      	bhi.n	800103a <decodeDatalogEntry+0x76>
 8000ff6:	061a      	lsls	r2, r3, #24
 8000ff8:	d51b      	bpl.n	8001032 <decodeDatalogEntry+0x6e>
 8000ffa:	f003 02c0 	and.w	r2, r3, #192	; 0xc0
 8000ffe:	2a80      	cmp	r2, #128	; 0x80
 8001000:	d019      	beq.n	8001036 <decodeDatalogEntry+0x72>
 8001002:	f003 03e0 	and.w	r3, r3, #224	; 0xe0
 8001006:	2bc0      	cmp	r3, #192	; 0xc0
 8001008:	bf0c      	ite	eq
 800100a:	2103      	moveq	r1, #3
 800100c:	2104      	movne	r1, #4
 800100e:	e9d4 2303 	ldrd	r2, r3, [r4, #12]
 8001012:	4413      	add	r3, r2
 8001014:	6123      	str	r3, [r4, #16]
 8001016:	68a3      	ldr	r3, [r4, #8]
 8001018:	f1c1 0208 	rsb	r2, r1, #8
 800101c:	3b01      	subs	r3, #1
 800101e:	60a3      	str	r3, [r4, #8]
 8001020:	4620      	mov	r0, r4
 8001022:	f7ff ffb1 	bl	8000f88 <decodeDatalogValue>
 8001026:	6963      	ldr	r3, [r4, #20]
 8001028:	4418      	add	r0, r3
 800102a:	6160      	str	r0, [r4, #20]
 800102c:	2001      	movs	r0, #1
 800102e:	b002      	add	sp, #8
 8001030:	bd70      	pop	{r4, r5, r6, pc}
 8001032:	2101      	movs	r1, #1
 8001034:	e7eb      	b.n	800100e <decodeDatalogEntry+0x4a>
 8001036:	2102      	movs	r1, #2
 8001038:	e7e9      	b.n	800100e <decodeDatalogEntry+0x4a>
 800103a:	2bf0      	cmp	r3, #240	; 0xf0
 800103c:	d106      	bne.n	800104c <decodeDatalogEntry+0x88>
 800103e:	e9d4 2303 	ldrd	r2, r3, [r4, #12]
 8001042:	4413      	add	r3, r2
 8001044:	6123      	str	r3, [r4, #16]
 8001046:	2208      	movs	r2, #8
 8001048:	2104      	movs	r1, #4
 800104a:	e7e9      	b.n	8001020 <decodeDatalogEntry+0x5c>
 800104c:	2bf5      	cmp	r3, #245	; 0xf5
 800104e:	d810      	bhi.n	8001072 <decodeDatalogEntry+0xae>
 8001050:	4a0d      	ldr	r2, [pc, #52]	; (8001088 <decodeDatalogEntry+0xc4>)
 8001052:	3bf0      	subs	r3, #240	; 0xf0
 8001054:	f832 3013 	ldrh.w	r3, [r2, r3, lsl #1]
 8001058:	2104      	movs	r1, #4
 800105a:	60e3      	str	r3, [r4, #12]
 800105c:	2208      	movs	r2, #8
 800105e:	4620      	mov	r0, r4
 8001060:	f7ff ff92 	bl	8000f88 <decodeDatalogValue>
 8001064:	2208      	movs	r2, #8
 8001066:	6120      	str	r0, [r4, #16]
 8001068:	2104      	movs	r1, #4
 800106a:	4620      	mov	r0, r4
 800106c:	f7ff ff8c 	bl	8000f88 <decodeDatalogValue>
 8001070:	e7db      	b.n	800102a <decodeDatalogEntry+0x66>
 8001072:	2bff      	cmp	r3, #255	; 0xff
 8001074:	d1ab      	bne.n	8000fce <decodeDatalogEntry+0xa>
 8001076:	68a3      	ldr	r3, [r4, #8]
 8001078:	2000      	movs	r0, #0
 800107a:	3b01      	subs	r3, #1
 800107c:	60a3      	str	r3, [r4, #8]
 800107e:	e7d6      	b.n	800102e <decodeDatalogEntry+0x6a>
 8001080:	08007598 	stmdaeq	r0, {r3, r4, r7, r8, sl, ip, sp, lr}
 8001084:	200000a8 	andcs	r0, r0, r8, lsr #1
 8001088:	0800638c 	stmdaeq	r0, {r2, r3, r7, r8, r9, sp, lr}

0800108c <initDatalog>:
 800108c:	4b0a      	ldr	r3, [pc, #40]	; (80010b8 <initDatalog+0x2c>)
 800108e:	b510      	push	{r4, lr}
 8001090:	6819      	ldr	r1, [r3, #0]
 8001092:	480a      	ldr	r0, [pc, #40]	; (80010bc <initDatalog+0x30>)
 8001094:	4c0a      	ldr	r4, [pc, #40]	; (80010c0 <initDatalog+0x34>)
 8001096:	2206      	movs	r2, #6
 8001098:	f3c1 3182 	ubfx	r1, r1, #14, #3
 800109c:	f002 fae6 	bl	800366c <selectMenuItem>
 80010a0:	4b08      	ldr	r3, [pc, #32]	; (80010c4 <initDatalog+0x38>)
 80010a2:	4620      	mov	r0, r4
 80010a4:	6023      	str	r3, [r4, #0]
 80010a6:	f000 ff91 	bl	8001fcc <setFlashPageHead>
 80010aa:	4620      	mov	r0, r4
 80010ac:	f7ff ff8a 	bl	8000fc4 <decodeDatalogEntry>
 80010b0:	2800      	cmp	r0, #0
 80010b2:	d1fa      	bne.n	80010aa <initDatalog+0x1e>
 80010b4:	bd10      	pop	{r4, pc}
 80010b6:	bf00      	nop
 80010b8:	20000da0 	andcs	r0, r0, r0, lsr #27
 80010bc:	08006354 	stmdaeq	r0, {r2, r4, r6, r8, r9, sp, lr}
 80010c0:	20000090 	mulcs	r0, r0, r0
 80010c4:	08007569 	stmdaeq	r0, {r0, r3, r5, r6, r8, sl, ip, sp, lr}

080010c8 <updateDatalog>:
 80010c8:	2001      	movs	r0, #1
 80010ca:	f7ff beab 	b.w	8000e24 <writeDatalogEntry>

080010ce <writeDatalog>:
 80010ce:	2000      	movs	r0, #0
 80010d0:	f7ff bea8 	b.w	8000e24 <writeDatalogEntry>

080010d4 <lockDatalog>:
 80010d4:	4a03      	ldr	r2, [pc, #12]	; (80010e4 <lockDatalog+0x10>)
 80010d6:	f892 3044 	ldrb.w	r3, [r2, #68]	; 0x44
 80010da:	3301      	adds	r3, #1
 80010dc:	f882 3044 	strb.w	r3, [r2, #68]	; 0x44
 80010e0:	4770      	bx	lr
 80010e2:	bf00      	nop
 80010e4:	20000090 	mulcs	r0, r0, r0

080010e8 <unlockDatalog>:
 80010e8:	4a03      	ldr	r2, [pc, #12]	; (80010f8 <unlockDatalog+0x10>)
 80010ea:	f892 3044 	ldrb.w	r3, [r2, #68]	; 0x44
 80010ee:	3b01      	subs	r3, #1
 80010f0:	f882 3044 	strb.w	r3, [r2, #68]	; 0x44
 80010f4:	4770      	bx	lr
 80010f6:	bf00      	nop
 80010f8:	20000090 	mulcs	r0, r0, r0

080010fc <startDatalogDownload>:
 80010fc:	b508      	push	{r3, lr}
 80010fe:	f7ff ffe9 	bl	80010d4 <lockDatalog>
 8001102:	4b04      	ldr	r3, [pc, #16]	; (8001114 <startDatalogDownload+0x18>)
 8001104:	4804      	ldr	r0, [pc, #16]	; (8001118 <startDatalogDownload+0x1c>)
 8001106:	f840 3f18 	str.w	r3, [r0, #24]!
 800110a:	e8bd 4008 	ldmia.w	sp!, {r3, lr}
 800110e:	f000 bf90 	b.w	8002032 <setFlashPageTail>
 8001112:	bf00      	nop
 8001114:	08007569 	stmdaeq	r0, {r0, r3, r5, r6, r8, sl, ip, sp, lr}
 8001118:	20000090 	mulcs	r0, r0, r0

0800111c <getDatalogDownloadEntry>:
 800111c:	b538      	push	{r3, r4, r5, lr}
 800111e:	4605      	mov	r5, r0
 8001120:	4807      	ldr	r0, [pc, #28]	; (8001140 <getDatalogDownloadEntry+0x24>)
 8001122:	f7ff ff4f 	bl	8000fc4 <decodeDatalogEntry>
 8001126:	4604      	mov	r4, r0
 8001128:	b130      	cbz	r0, 8001138 <getDatalogDownloadEntry+0x1c>
 800112a:	4b06      	ldr	r3, [pc, #24]	; (8001144 <getDatalogDownloadEntry+0x28>)
 800112c:	e893 0003 	ldmia.w	r3, {r0, r1}
 8001130:	e885 0003 	stmia.w	r5, {r0, r1}
 8001134:	4620      	mov	r0, r4
 8001136:	bd38      	pop	{r3, r4, r5, pc}
 8001138:	f7ff ffd6 	bl	80010e8 <unlockDatalog>
 800113c:	e7fa      	b.n	8001134 <getDatalogDownloadEntry+0x18>
 800113e:	bf00      	nop
 8001140:	200000a8 	andcs	r0, r0, r8, lsr #1
 8001144:	200000b8 	strhcs	r0, [r0], -r8

08001148 <onDisplayMenuGetOption>:
 8001148:	2302      	movs	r3, #2
 800114a:	6013      	str	r3, [r2, #0]
 800114c:	4b01      	ldr	r3, [pc, #4]	; (8001154 <onDisplayMenuGetOption+0xc>)
 800114e:	f853 0031 	ldr.w	r0, [r3, r1, lsl #3]
 8001152:	4770      	bx	lr
 8001154:	08006458 	stmdaeq	r0, {r3, r4, r6, sl, sp, lr}

08001158 <onDisplayBrightnessMenuGetOption>:
 8001158:	4b05      	ldr	r3, [pc, #20]	; (8001170 <onDisplayBrightnessMenuGetOption+0x18>)
 800115a:	799b      	ldrb	r3, [r3, #6]
 800115c:	f3c3 1301 	ubfx	r3, r3, #4, #2
 8001160:	1a58      	subs	r0, r3, r1
 8001162:	4243      	negs	r3, r0
 8001164:	4143      	adcs	r3, r0
 8001166:	6013      	str	r3, [r2, #0]
 8001168:	4b02      	ldr	r3, [pc, #8]	; (8001174 <onDisplayBrightnessMenuGetOption+0x1c>)
 800116a:	f853 0021 	ldr.w	r0, [r3, r1, lsl #2]
 800116e:	4770      	bx	lr
 8001170:	20000da0 	andcs	r0, r0, r0, lsr #27
 8001174:	0800640c 	stmdaeq	r0, {r2, r3, sl, sp, lr}

08001178 <onDisplaySleepMenuGetOption>:
 8001178:	4b05      	ldr	r3, [pc, #20]	; (8001190 <onDisplaySleepMenuGetOption+0x18>)
 800117a:	88db      	ldrh	r3, [r3, #6]
 800117c:	f3c3 1382 	ubfx	r3, r3, #6, #3
 8001180:	1a58      	subs	r0, r3, r1
 8001182:	4243      	negs	r3, r0
 8001184:	4143      	adcs	r3, r0
 8001186:	6013      	str	r3, [r2, #0]
 8001188:	4b02      	ldr	r3, [pc, #8]	; (8001194 <onDisplaySleepMenuGetOption+0x1c>)
 800118a:	f853 0021 	ldr.w	r0, [r3, r1, lsl #2]
 800118e:	4770      	bx	lr
 8001190:	20000da0 	andcs	r0, r0, r0, lsr #27
 8001194:	08006494 	stmdaeq	r0, {r2, r4, r7, sl, sp, lr}

08001198 <onDisplaySubMenuBack>:
 8001198:	4801      	ldr	r0, [pc, #4]	; (80011a0 <onDisplaySubMenuBack+0x8>)
 800119a:	f004 b875 	b.w	8005288 <setView>
 800119e:	bf00      	nop
 80011a0:	08006478 	stmdaeq	r0, {r3, r4, r5, r6, sl, sp, lr}

080011a4 <onDisplayMenuSelect>:
 80011a4:	6843      	ldr	r3, [r0, #4]
 80011a6:	885a      	ldrh	r2, [r3, #2]
 80011a8:	4b02      	ldr	r3, [pc, #8]	; (80011b4 <onDisplayMenuSelect+0x10>)
 80011aa:	eb03 03c2 	add.w	r3, r3, r2, lsl #3
 80011ae:	6858      	ldr	r0, [r3, #4]
 80011b0:	f004 b86a 	b.w	8005288 <setView>
 80011b4:	08006458 	stmdaeq	r0, {r3, r4, r6, sl, sp, lr}

080011b8 <onDisplayBrightnessMenuSelect>:
 80011b8:	6841      	ldr	r1, [r0, #4]
 80011ba:	4b04      	ldr	r3, [pc, #16]	; (80011cc <onDisplayBrightnessMenuSelect+0x14>)
 80011bc:	8849      	ldrh	r1, [r1, #2]
 80011be:	799a      	ldrb	r2, [r3, #6]
 80011c0:	2001      	movs	r0, #1
 80011c2:	f361 1205 	bfi	r2, r1, #4, #2
 80011c6:	719a      	strb	r2, [r3, #6]
 80011c8:	f003 ba92 	b.w	80046f0 <setDisplayBacklight>
 80011cc:	20000da0 	andcs	r0, r0, r0, lsr #27

080011d0 <onDisplaySleepMenuSelect>:
 80011d0:	4b04      	ldr	r3, [pc, #16]	; (80011e4 <onDisplaySleepMenuSelect+0x14>)
 80011d2:	6841      	ldr	r1, [r0, #4]
 80011d4:	88da      	ldrh	r2, [r3, #6]
 80011d6:	8849      	ldrh	r1, [r1, #2]
 80011d8:	f361 1288 	bfi	r2, r1, #6, #3
 80011dc:	80da      	strh	r2, [r3, #6]
 80011de:	f000 be85 	b.w	8001eec <triggerDisplay>
 80011e2:	bf00      	nop
 80011e4:	20000da0 	andcs	r0, r0, r0, lsr #27

080011e8 <onDisplayContrastMenuSelect>:
 80011e8:	4b04      	ldr	r3, [pc, #16]	; (80011fc <onDisplayContrastMenuSelect+0x14>)
 80011ea:	6841      	ldr	r1, [r0, #4]
 80011ec:	799a      	ldrb	r2, [r3, #6]
 80011ee:	8849      	ldrh	r1, [r1, #2]
 80011f0:	f361 0243 	bfi	r2, r1, #1, #3
 80011f4:	719a      	strb	r2, [r3, #6]
 80011f6:	f002 bfbf 	b.w	8004178 <updateDisplayContrast>
 80011fa:	bf00      	nop
 80011fc:	20000da0 	andcs	r0, r0, r0, lsr #27

08001200 <onDisplayContrastMenuGetOption>:
 8001200:	2907      	cmp	r1, #7
 8001202:	b510      	push	{r4, lr}
 8001204:	460c      	mov	r4, r1
 8001206:	d812      	bhi.n	800122e <onDisplayContrastMenuGetOption+0x2e>
 8001208:	4b0a      	ldr	r3, [pc, #40]	; (8001234 <onDisplayContrastMenuGetOption+0x34>)
 800120a:	480b      	ldr	r0, [pc, #44]	; (8001238 <onDisplayContrastMenuGetOption+0x38>)
 800120c:	799b      	ldrb	r3, [r3, #6]
 800120e:	f3c3 0342 	ubfx	r3, r3, #1, #3
 8001212:	1a59      	subs	r1, r3, r1
 8001214:	424b      	negs	r3, r1
 8001216:	414b      	adcs	r3, r1
 8001218:	6013      	str	r3, [r2, #0]
 800121a:	4908      	ldr	r1, [pc, #32]	; (800123c <onDisplayContrastMenuGetOption+0x3c>)
 800121c:	f004 ff1e 	bl	800605c <strcpy>
 8001220:	4805      	ldr	r0, [pc, #20]	; (8001238 <onDisplayContrastMenuGetOption+0x38>)
 8001222:	2200      	movs	r2, #0
 8001224:	1c61      	adds	r1, r4, #1
 8001226:	f7ff fc41 	bl	8000aac <strcatUInt32>
 800122a:	4803      	ldr	r0, [pc, #12]	; (8001238 <onDisplayContrastMenuGetOption+0x38>)
 800122c:	bd10      	pop	{r4, pc}
 800122e:	2000      	movs	r0, #0
 8001230:	e7fc      	b.n	800122c <onDisplayContrastMenuGetOption+0x2c>
 8001232:	bf00      	nop
 8001234:	20000da0 	andcs	r0, r0, r0, lsr #27
 8001238:	20000d7c 	andcs	r0, r0, ip, ror sp
 800123c:	08006e58 	stmdaeq	r0, {r3, r4, r6, r9, sl, fp, sp, lr}

08001240 <setFillColor>:
 8001240:	2810      	cmp	r0, #16
 8001242:	b510      	push	{r4, lr}
 8001244:	d016      	beq.n	8001274 <setFillColor+0x34>
 8001246:	f648 1330 	movw	r3, #35120	; 0x8930
 800124a:	fa23 f000 	lsr.w	r0, r3, r0
 800124e:	43c0      	mvns	r0, r0
 8001250:	f64f 71ff 	movw	r1, #65535	; 0xffff
 8001254:	f000 0001 	and.w	r0, r0, #1
 8001258:	2800      	cmp	r0, #0
 800125a:	bf16      	itet	ne
 800125c:	460c      	movne	r4, r1
 800125e:	2400      	moveq	r4, #0
 8001260:	2100      	movne	r1, #0
 8001262:	4806      	ldr	r0, [pc, #24]	; (800127c <setFillColor+0x3c>)
 8001264:	f004 f9be 	bl	80055e4 <mr_set_fill_color>
 8001268:	4621      	mov	r1, r4
 800126a:	e8bd 4010 	ldmia.w	sp!, {r4, lr}
 800126e:	4803      	ldr	r0, [pc, #12]	; (800127c <setFillColor+0x3c>)
 8001270:	f004 b9c0 	b.w	80055f4 <mr_set_text_color>
 8001274:	f64f 74ff 	movw	r4, #65535	; 0xffff
 8001278:	2100      	movs	r1, #0
 800127a:	e7f2      	b.n	8001262 <setFillColor+0x22>
 800127c:	20000cd0 	ldrdcs	r0, [r0], -r0	; <UNPREDICTABLE>

08001280 <drawText>:
 8001280:	4613      	mov	r3, r2
 8001282:	460a      	mov	r2, r1
 8001284:	4601      	mov	r1, r0
 8001286:	4801      	ldr	r0, [pc, #4]	; (800128c <drawText+0xc>)
 8001288:	f004 b9b8 	b.w	80055fc <mr_draw_text>
 800128c:	20000cd0 	ldrdcs	r0, [r0], -r0	; <UNPREDICTABLE>

08001290 <setFont>:
 8001290:	4601      	mov	r1, r0
 8001292:	4801      	ldr	r0, [pc, #4]	; (8001298 <setFont+0x8>)
 8001294:	f004 b9ab 	b.w	80055ee <mr_set_font>
 8001298:	20000cd0 	ldrdcs	r0, [r0], -r0	; <UNPREDICTABLE>

0800129c <drawTitle>:
 800129c:	b51f      	push	{r0, r1, r2, r3, r4, lr}
 800129e:	4604      	mov	r4, r0
 80012a0:	4a09      	ldr	r2, [pc, #36]	; (80012c8 <drawTitle+0x2c>)
 80012a2:	ab02      	add	r3, sp, #8
 80012a4:	6810      	ldr	r0, [r2, #0]
 80012a6:	6851      	ldr	r1, [r2, #4]
 80012a8:	c303      	stmia	r3!, {r0, r1}
 80012aa:	6890      	ldr	r0, [r2, #8]
 80012ac:	9001      	str	r0, [sp, #4]
 80012ae:	4807      	ldr	r0, [pc, #28]	; (80012cc <drawTitle+0x30>)
 80012b0:	f7ff ffee 	bl	8001290 <setFont>
 80012b4:	2002      	movs	r0, #2
 80012b6:	f7ff ffc3 	bl	8001240 <setFillColor>
 80012ba:	aa01      	add	r2, sp, #4
 80012bc:	a902      	add	r1, sp, #8
 80012be:	4620      	mov	r0, r4
 80012c0:	f7ff ffde 	bl	8001280 <drawText>
 80012c4:	b004      	add	sp, #16
 80012c6:	bd10      	pop	{r4, pc}
 80012c8:	08006084 	stmdaeq	r0, {r2, r7, sp, lr}
 80012cc:	08006778 	stmdaeq	r0, {r3, r4, r5, r6, r8, r9, sl, sp, lr}

080012d0 <drawRectangle>:
 80012d0:	4601      	mov	r1, r0
 80012d2:	4801      	ldr	r0, [pc, #4]	; (80012d8 <drawRectangle+0x8>)
 80012d4:	f004 b989 	b.w	80055ea <mr_draw_rectangle>
 80012d8:	20000cd0 	ldrdcs	r0, [r0], -r0	; <UNPREDICTABLE>

080012dc <drawValueAndUnit.isra.1>:
 80012dc:	e92d 43f0 	stmdb	sp!, {r4, r5, r6, r7, r8, r9, lr}
 80012e0:	4681      	mov	r9, r0
 80012e2:	b085      	sub	sp, #20
 80012e4:	ac02      	add	r4, sp, #8
 80012e6:	460f      	mov	r7, r1
 80012e8:	e9d2 0100 	ldrd	r0, r1, [r2]
 80012ec:	e884 0003 	stmia.w	r4, {r0, r1}
 80012f0:	4649      	mov	r1, r9
 80012f2:	4814      	ldr	r0, [pc, #80]	; (8001344 <drawValueAndUnit.isra.1+0x68>)
 80012f4:	461d      	mov	r5, r3
 80012f6:	f8b3 8000 	ldrh.w	r8, [r3]
 80012fa:	4616      	mov	r6, r2
 80012fc:	f004 f988 	bl	8005610 <mr_get_text_width>
 8001300:	4440      	add	r0, r8
 8001302:	f8ad 000c 	strh.w	r0, [sp, #12]
 8001306:	462a      	mov	r2, r5
 8001308:	4621      	mov	r1, r4
 800130a:	4648      	mov	r0, r9
 800130c:	f7ff ffb8 	bl	8001280 <drawText>
 8001310:	f8bd 100c 	ldrh.w	r1, [sp, #12]
 8001314:	88b3      	ldrh	r3, [r6, #4]
 8001316:	f8bd 2008 	ldrh.w	r2, [sp, #8]
 800131a:	1a5b      	subs	r3, r3, r1
 800131c:	f8ad 300c 	strh.w	r3, [sp, #12]
 8001320:	2300      	movs	r3, #0
 8001322:	440a      	add	r2, r1
 8001324:	f8ad 3004 	strh.w	r3, [sp, #4]
 8001328:	886b      	ldrh	r3, [r5, #2]
 800132a:	f8ad 2008 	strh.w	r2, [sp, #8]
 800132e:	4621      	mov	r1, r4
 8001330:	aa01      	add	r2, sp, #4
 8001332:	4638      	mov	r0, r7
 8001334:	f8ad 3006 	strh.w	r3, [sp, #6]
 8001338:	f7ff ffa2 	bl	8001280 <drawText>
 800133c:	b005      	add	sp, #20
 800133e:	e8bd 83f0 	ldmia.w	sp!, {r4, r5, r6, r7, r8, r9, pc}
 8001342:	bf00      	nop
 8001344:	20000cd0 	ldrdcs	r0, [r0], -r0	; <UNPREDICTABLE>

08001348 <drawRightAlignedText>:
 8001348:	b537      	push	{r0, r1, r2, r4, r5, lr}
 800134a:	6813      	ldr	r3, [r2, #0]
 800134c:	4604      	mov	r4, r0
 800134e:	460d      	mov	r5, r1
 8001350:	4601      	mov	r1, r0
 8001352:	4808      	ldr	r0, [pc, #32]	; (8001374 <drawRightAlignedText+0x2c>)
 8001354:	9301      	str	r3, [sp, #4]
 8001356:	f004 f95b 	bl	8005610 <mr_get_text_width>
 800135a:	f8bd 3004 	ldrh.w	r3, [sp, #4]
 800135e:	aa02      	add	r2, sp, #8
 8001360:	1a18      	subs	r0, r3, r0
 8001362:	f822 0d04 	strh.w	r0, [r2, #-4]!
 8001366:	4629      	mov	r1, r5
 8001368:	4620      	mov	r0, r4
 800136a:	f7ff ff89 	bl	8001280 <drawText>
 800136e:	b003      	add	sp, #12
 8001370:	bd30      	pop	{r4, r5, pc}
 8001372:	bf00      	nop
 8001374:	20000cd0 	ldrdcs	r0, [r0], -r0	; <UNPREDICTABLE>

08001378 <drawCenteredText>:
 8001378:	b537      	push	{r0, r1, r2, r4, r5, lr}
 800137a:	6813      	ldr	r3, [r2, #0]
 800137c:	4604      	mov	r4, r0
 800137e:	460d      	mov	r5, r1
 8001380:	4601      	mov	r1, r0
 8001382:	4809      	ldr	r0, [pc, #36]	; (80013a8 <drawCenteredText+0x30>)
 8001384:	9301      	str	r3, [sp, #4]
 8001386:	f004 f943 	bl	8005610 <mr_get_text_width>
 800138a:	2302      	movs	r3, #2
 800138c:	fb90 f0f3 	sdiv	r0, r0, r3
 8001390:	f8bd 3004 	ldrh.w	r3, [sp, #4]
 8001394:	aa02      	add	r2, sp, #8
 8001396:	1a18      	subs	r0, r3, r0
 8001398:	f822 0d04 	strh.w	r0, [r2, #-4]!
 800139c:	4629      	mov	r1, r5
 800139e:	4620      	mov	r0, r4
 80013a0:	f7ff ff6e 	bl	8001280 <drawText>
 80013a4:	b003      	add	sp, #12
 80013a6:	bd30      	pop	{r4, r5, pc}
 80013a8:	20000cd0 	ldrdcs	r0, [r0], -r0	; <UNPREDICTABLE>

080013ac <initDisplay>:
 80013ac:	b510      	push	{r4, lr}
 80013ae:	4c0e      	ldr	r4, [pc, #56]	; (80013e8 <initDisplay+0x3c>)
 80013b0:	f002 fef8 	bl	80041a4 <initDisplayController>
 80013b4:	f003 f964 	bl	8004680 <initDisplayBacklight>
 80013b8:	79a1      	ldrb	r1, [r4, #6]
 80013ba:	2208      	movs	r2, #8
 80013bc:	f3c1 0142 	ubfx	r1, r1, #1, #3
 80013c0:	480a      	ldr	r0, [pc, #40]	; (80013ec <initDisplay+0x40>)
 80013c2:	f002 f953 	bl	800366c <selectMenuItem>
 80013c6:	88e1      	ldrh	r1, [r4, #6]
 80013c8:	2207      	movs	r2, #7
 80013ca:	f3c1 1182 	ubfx	r1, r1, #6, #3
 80013ce:	4808      	ldr	r0, [pc, #32]	; (80013f0 <initDisplay+0x44>)
 80013d0:	f002 f94c 	bl	800366c <selectMenuItem>
 80013d4:	79a1      	ldrb	r1, [r4, #6]
 80013d6:	2204      	movs	r2, #4
 80013d8:	e8bd 4010 	ldmia.w	sp!, {r4, lr}
 80013dc:	f3c1 1101 	ubfx	r1, r1, #4, #2
 80013e0:	4804      	ldr	r0, [pc, #16]	; (80013f4 <initDisplay+0x48>)
 80013e2:	f002 b943 	b.w	800366c <selectMenuItem>
 80013e6:	bf00      	nop
 80013e8:	20000da0 	andcs	r0, r0, r0, lsr #27
 80013ec:	08006428 	stmdaeq	r0, {r3, r5, sl, sp, lr}
 80013f0:	08006480 	stmdaeq	r0, {r7, sl, sp, lr}
 80013f4:	080063f8 	stmdaeq	r0, {r3, r4, r5, r6, r7, r8, r9, sp, lr}

080013f8 <setDisplayOn>:
 80013f8:	4b02      	ldr	r3, [pc, #8]	; (8001404 <setDisplayOn+0xc>)
 80013fa:	4601      	mov	r1, r0
 80013fc:	7018      	strb	r0, [r3, #0]
 80013fe:	4802      	ldr	r0, [pc, #8]	; (8001408 <setDisplayOn+0x10>)
 8001400:	f004 b8ea 	b.w	80055d8 <mr_set_display>
 8001404:	20000ccc 	andcs	r0, r0, ip, asr #25
 8001408:	20000cd0 	ldrdcs	r0, [r0], -r0	; <UNPREDICTABLE>

0800140c <refreshDisplay>:
 800140c:	4801      	ldr	r0, [pc, #4]	; (8001414 <refreshDisplay+0x8>)
 800140e:	f004 b8e5 	b.w	80055dc <mr_refresh_display>
 8001412:	bf00      	nop
 8001414:	20000cd0 	ldrdcs	r0, [r0], -r0	; <UNPREDICTABLE>

08001418 <drawStatusBar>:
 8001418:	b510      	push	{r4, lr}
 800141a:	200a      	movs	r0, #10
 800141c:	b08c      	sub	sp, #48	; 0x30
 800141e:	f7ff ff0f 	bl	8001240 <setFillColor>
 8001422:	a806      	add	r0, sp, #24
 8001424:	f002 fc89 	bl	8003d3a <getDeviceDateTime>
 8001428:	2300      	movs	r3, #0
 800142a:	9304      	str	r3, [sp, #16]
 800142c:	f8ad 3014 	strh.w	r3, [sp, #20]
 8001430:	f240 73e3 	movw	r3, #2019	; 0x7e3
 8001434:	f8bd 2018 	ldrh.w	r2, [sp, #24]
 8001438:	429a      	cmp	r2, r3
 800143a:	d90f      	bls.n	800145c <drawStatusBar+0x44>
 800143c:	2202      	movs	r2, #2
 800143e:	f89d 101c 	ldrb.w	r1, [sp, #28]
 8001442:	a804      	add	r0, sp, #16
 8001444:	f7ff fb32 	bl	8000aac <strcatUInt32>
 8001448:	4929      	ldr	r1, [pc, #164]	; (80014f0 <drawStatusBar+0xd8>)
 800144a:	a804      	add	r0, sp, #16
 800144c:	f004 fdf7 	bl	800603e <strcat>
 8001450:	2202      	movs	r2, #2
 8001452:	f89d 101d 	ldrb.w	r1, [sp, #29]
 8001456:	a804      	add	r0, sp, #16
 8001458:	f7ff fb28 	bl	8000aac <strcatUInt32>
 800145c:	4a25      	ldr	r2, [pc, #148]	; (80014f4 <drawStatusBar+0xdc>)
 800145e:	ab08      	add	r3, sp, #32
 8001460:	6810      	ldr	r0, [r2, #0]
 8001462:	6851      	ldr	r1, [r2, #4]
 8001464:	ac0c      	add	r4, sp, #48	; 0x30
 8001466:	c303      	stmia	r3!, {r0, r1}
 8001468:	2302      	movs	r3, #2
 800146a:	4823      	ldr	r0, [pc, #140]	; (80014f8 <drawStatusBar+0xe0>)
 800146c:	f844 3d2c 	str.w	r3, [r4, #-44]!
 8001470:	f7ff ff0e 	bl	8001290 <setFont>
 8001474:	4622      	mov	r2, r4
 8001476:	a908      	add	r1, sp, #32
 8001478:	a804      	add	r0, sp, #16
 800147a:	f7ff ff01 	bl	8001280 <drawText>
 800147e:	f002 f995 	bl	80037ac <getDeviceBatteryLevel>
 8001482:	2300      	movs	r3, #0
 8001484:	4a1d      	ldr	r2, [pc, #116]	; (80014fc <drawStatusBar+0xe4>)
 8001486:	9302      	str	r3, [sp, #8]
 8001488:	6813      	ldr	r3, [r2, #0]
 800148a:	8812      	ldrh	r2, [r2, #0]
 800148c:	f413 33e0 	ands.w	r3, r3, #114688	; 0x1c000
 8001490:	bf18      	it	ne
 8001492:	2338      	movne	r3, #56	; 0x38
 8001494:	f402 527f 	and.w	r2, r2, #16320	; 0x3fc0
 8001498:	bf1c      	itt	ne
 800149a:	f88d 3008 	strbne.w	r3, [sp, #8]
 800149e:	2301      	movne	r3, #1
 80014a0:	b12a      	cbz	r2, 80014ae <drawStatusBar+0x96>
 80014a2:	2137      	movs	r1, #55	; 0x37
 80014a4:	aa0c      	add	r2, sp, #48	; 0x30
 80014a6:	441a      	add	r2, r3
 80014a8:	f802 1c28 	strb.w	r1, [r2, #-40]
 80014ac:	3301      	adds	r3, #1
 80014ae:	1c42      	adds	r2, r0, #1
 80014b0:	aa0c      	add	r2, sp, #48	; 0x30
 80014b2:	4413      	add	r3, r2
 80014b4:	f04f 0200 	mov.w	r2, #0
 80014b8:	bf0c      	ite	eq
 80014ba:	2036      	moveq	r0, #54	; 0x36
 80014bc:	3030      	addne	r0, #48	; 0x30
 80014be:	f803 2c27 	strb.w	r2, [r3, #-39]
 80014c2:	4a0f      	ldr	r2, [pc, #60]	; (8001500 <drawStatusBar+0xe8>)
 80014c4:	bf18      	it	ne
 80014c6:	b2c0      	uxtbne	r0, r0
 80014c8:	6851      	ldr	r1, [r2, #4]
 80014ca:	f803 0c28 	strb.w	r0, [r3, #-40]
 80014ce:	6810      	ldr	r0, [r2, #0]
 80014d0:	ab0a      	add	r3, sp, #40	; 0x28
 80014d2:	c303      	stmia	r3!, {r0, r1}
 80014d4:	233e      	movs	r3, #62	; 0x3e
 80014d6:	ac0c      	add	r4, sp, #48	; 0x30
 80014d8:	f844 3d24 	str.w	r3, [r4, #-36]!
 80014dc:	4809      	ldr	r0, [pc, #36]	; (8001504 <drawStatusBar+0xec>)
 80014de:	f7ff fed7 	bl	8001290 <setFont>
 80014e2:	4622      	mov	r2, r4
 80014e4:	a90a      	add	r1, sp, #40	; 0x28
 80014e6:	a802      	add	r0, sp, #8
 80014e8:	f7ff ff2e 	bl	8001348 <drawRightAlignedText>
 80014ec:	b00c      	add	sp, #48	; 0x30
 80014ee:	bd10      	pop	{r4, pc}
 80014f0:	0800634f 	stmdaeq	r0, {r0, r1, r2, r3, r6, r8, r9, sp, lr}
 80014f4:	08006090 	stmdaeq	r0, {r4, r7, sp, lr}
 80014f8:	08006bd8 	stmdaeq	r0, {r3, r4, r6, r7, r8, r9, fp, sp, lr}
 80014fc:	20000da0 	andcs	r0, r0, r0, lsr #27
 8001500:	08006098 	stmdaeq	r0, {r3, r4, r7, sp, lr}
 8001504:	08006b4c 	stmdaeq	r0, {r2, r3, r6, r8, r9, fp, sp, lr}

08001508 <drawNotification>:
 8001508:	b570      	push	{r4, r5, r6, lr}
 800150a:	4614      	mov	r4, r2
 800150c:	b086      	sub	sp, #24
 800150e:	4606      	mov	r6, r0
 8001510:	4816      	ldr	r0, [pc, #88]	; (800156c <drawNotification+0x64>)
 8001512:	460d      	mov	r5, r1
 8001514:	f7ff febc 	bl	8001290 <setFont>
 8001518:	2003      	movs	r0, #3
 800151a:	f7ff fe91 	bl	8001240 <setFillColor>
 800151e:	b13c      	cbz	r4, 8001530 <drawNotification+0x28>
 8001520:	4a13      	ldr	r2, [pc, #76]	; (8001570 <drawNotification+0x68>)
 8001522:	ab04      	add	r3, sp, #16
 8001524:	6810      	ldr	r0, [r2, #0]
 8001526:	6851      	ldr	r1, [r2, #4]
 8001528:	c303      	stmia	r3!, {r0, r1}
 800152a:	a804      	add	r0, sp, #16
 800152c:	f7ff fed0 	bl	80012d0 <drawRectangle>
 8001530:	4c10      	ldr	r4, [pc, #64]	; (8001574 <drawNotification+0x6c>)
 8001532:	ab02      	add	r3, sp, #8
 8001534:	6820      	ldr	r0, [r4, #0]
 8001536:	6861      	ldr	r1, [r4, #4]
 8001538:	466a      	mov	r2, sp
 800153a:	c303      	stmia	r3!, {r0, r1}
 800153c:	68a0      	ldr	r0, [r4, #8]
 800153e:	a902      	add	r1, sp, #8
 8001540:	9000      	str	r0, [sp, #0]
 8001542:	4630      	mov	r0, r6
 8001544:	f7ff ff18 	bl	8001378 <drawCenteredText>
 8001548:	4622      	mov	r2, r4
 800154a:	f852 0f0c 	ldr.w	r0, [r2, #12]!
 800154e:	ab04      	add	r3, sp, #16
 8001550:	6851      	ldr	r1, [r2, #4]
 8001552:	c303      	stmia	r3!, {r0, r1}
 8001554:	6960      	ldr	r0, [r4, #20]
 8001556:	9001      	str	r0, [sp, #4]
 8001558:	4807      	ldr	r0, [pc, #28]	; (8001578 <drawNotification+0x70>)
 800155a:	f7ff fe99 	bl	8001290 <setFont>
 800155e:	aa01      	add	r2, sp, #4
 8001560:	a904      	add	r1, sp, #16
 8001562:	4628      	mov	r0, r5
 8001564:	f7ff ff08 	bl	8001378 <drawCenteredText>
 8001568:	b006      	add	sp, #24
 800156a:	bd70      	pop	{r4, r5, r6, pc}
 800156c:	08006778 	stmdaeq	r0, {r3, r4, r5, r6, r8, r9, sl, sp, lr}
 8001570:	080060a0 	stmdaeq	r0, {r5, r7, sp, lr}
 8001574:	080060a8 	stmdaeq	r0, {r3, r5, r7, sp, lr}
 8001578:	08006bd8 	stmdaeq	r0, {r3, r4, r6, r7, r8, r9, fp, sp, lr}

0800157c <drawMenu>:
 800157c:	e92d 4ff0 	stmdb	sp!, {r4, r5, r6, r7, r8, r9, sl, fp, lr}
 8001580:	4c43      	ldr	r4, [pc, #268]	; (8001690 <drawMenu+0x114>)
 8001582:	b089      	sub	sp, #36	; 0x24
 8001584:	6861      	ldr	r1, [r4, #4]
 8001586:	4605      	mov	r5, r0
 8001588:	6820      	ldr	r0, [r4, #0]
 800158a:	ab04      	add	r3, sp, #16
 800158c:	c303      	stmia	r3!, {r0, r1}
 800158e:	2340      	movs	r3, #64	; 0x40
 8001590:	ae08      	add	r6, sp, #32
 8001592:	f846 3d20 	str.w	r3, [r6, #-32]!
 8001596:	483f      	ldr	r0, [pc, #252]	; (8001694 <drawMenu+0x118>)
 8001598:	f7ff fe7a 	bl	8001290 <setFont>
 800159c:	2002      	movs	r0, #2
 800159e:	f7ff fe4f 	bl	8001240 <setFillColor>
 80015a2:	4632      	mov	r2, r6
 80015a4:	a904      	add	r1, sp, #16
 80015a6:	6828      	ldr	r0, [r5, #0]
 80015a8:	f7ff fee6 	bl	8001378 <drawCenteredText>
 80015ac:	483a      	ldr	r0, [pc, #232]	; (8001698 <drawMenu+0x11c>)
 80015ae:	f7ff fe6f 	bl	8001290 <setFont>
 80015b2:	686b      	ldr	r3, [r5, #4]
 80015b4:	68a0      	ldr	r0, [r4, #8]
 80015b6:	881e      	ldrh	r6, [r3, #0]
 80015b8:	885f      	ldrh	r7, [r3, #2]
 80015ba:	230c      	movs	r3, #12
 80015bc:	f8ad 301e 	strh.w	r3, [sp, #30]
 80015c0:	2310      	movs	r3, #16
 80015c2:	9001      	str	r0, [sp, #4]
 80015c4:	68e0      	ldr	r0, [r4, #12]
 80015c6:	2400      	movs	r4, #0
 80015c8:	f8df 80d0 	ldr.w	r8, [pc, #208]	; 800169c <drawMenu+0x120>
 80015cc:	f8df 90d0 	ldr.w	r9, [pc, #208]	; 80016a0 <drawMenu+0x124>
 80015d0:	f8ad 301a 	strh.w	r3, [sp, #26]
 80015d4:	9002      	str	r0, [sp, #8]
 80015d6:	eb06 0b04 	add.w	fp, r6, r4
 80015da:	68ab      	ldr	r3, [r5, #8]
 80015dc:	aa03      	add	r2, sp, #12
 80015de:	4659      	mov	r1, fp
 80015e0:	4628      	mov	r0, r5
 80015e2:	4798      	blx	r3
 80015e4:	4682      	mov	sl, r0
 80015e6:	2800      	cmp	r0, #0
 80015e8:	d03c      	beq.n	8001664 <drawMenu+0xe8>
 80015ea:	2380      	movs	r3, #128	; 0x80
 80015ec:	455f      	cmp	r7, fp
 80015ee:	bf14      	ite	ne
 80015f0:	2003      	movne	r0, #3
 80015f2:	200b      	moveq	r0, #11
 80015f4:	f8ad 3018 	strh.w	r3, [sp, #24]
 80015f8:	f7ff fe22 	bl	8001240 <setFillColor>
 80015fc:	9b03      	ldr	r3, [sp, #12]
 80015fe:	079a      	lsls	r2, r3, #30
 8001600:	d50c      	bpl.n	800161c <drawMenu+0xa0>
 8001602:	2308      	movs	r3, #8
 8001604:	f8ad 301c 	strh.w	r3, [sp, #28]
 8001608:	f8bd 3018 	ldrh.w	r3, [sp, #24]
 800160c:	aa02      	add	r2, sp, #8
 800160e:	3b08      	subs	r3, #8
 8001610:	a906      	add	r1, sp, #24
 8001612:	4640      	mov	r0, r8
 8001614:	f8ad 3018 	strh.w	r3, [sp, #24]
 8001618:	f7ff fe32 	bl	8001280 <drawText>
 800161c:	9b03      	ldr	r3, [sp, #12]
 800161e:	07db      	lsls	r3, r3, #31
 8001620:	d50c      	bpl.n	800163c <drawMenu+0xc0>
 8001622:	220b      	movs	r2, #11
 8001624:	f9bd 3018 	ldrsh.w	r3, [sp, #24]
 8001628:	f8ad 201c 	strh.w	r2, [sp, #28]
 800162c:	3b0b      	subs	r3, #11
 800162e:	aa02      	add	r2, sp, #8
 8001630:	a906      	add	r1, sp, #24
 8001632:	4648      	mov	r0, r9
 8001634:	f8ad 3018 	strh.w	r3, [sp, #24]
 8001638:	f7ff fe22 	bl	8001280 <drawText>
 800163c:	f8bd 3018 	ldrh.w	r3, [sp, #24]
 8001640:	aa01      	add	r2, sp, #4
 8001642:	f8ad 301c 	strh.w	r3, [sp, #28]
 8001646:	2300      	movs	r3, #0
 8001648:	a906      	add	r1, sp, #24
 800164a:	4650      	mov	r0, sl
 800164c:	f8ad 3018 	strh.w	r3, [sp, #24]
 8001650:	f7ff fe16 	bl	8001280 <drawText>
 8001654:	f8bd 301a 	ldrh.w	r3, [sp, #26]
 8001658:	3401      	adds	r4, #1
 800165a:	330c      	adds	r3, #12
 800165c:	2c04      	cmp	r4, #4
 800165e:	f8ad 301a 	strh.w	r3, [sp, #26]
 8001662:	d1b8      	bne.n	80015d6 <drawMenu+0x5a>
 8001664:	2300      	movs	r3, #0
 8001666:	f8ad 3018 	strh.w	r3, [sp, #24]
 800166a:	2380      	movs	r3, #128	; 0x80
 800166c:	f8ad 301c 	strh.w	r3, [sp, #28]
 8001670:	f8bd 301a 	ldrh.w	r3, [sp, #26]
 8001674:	2003      	movs	r0, #3
 8001676:	f1c3 0340 	rsb	r3, r3, #64	; 0x40
 800167a:	f8ad 301e 	strh.w	r3, [sp, #30]
 800167e:	f7ff fddf 	bl	8001240 <setFillColor>
 8001682:	a806      	add	r0, sp, #24
 8001684:	f7ff fe24 	bl	80012d0 <drawRectangle>
 8001688:	b009      	add	sp, #36	; 0x24
 800168a:	e8bd 8ff0 	ldmia.w	sp!, {r4, r5, r6, r7, r8, r9, sl, fp, pc}
 800168e:	bf00      	nop
 8001690:	080060cc 	stmdaeq	r0, {r2, r3, r6, r7, sp, lr}
 8001694:	08006bd8 	stmdaeq	r0, {r3, r4, r6, r7, r8, r9, fp, sp, lr}
 8001698:	08006778 	stmdaeq	r0, {r3, r4, r5, r6, r8, r9, sl, sp, lr}
 800169c:	080064c7 	stmdaeq	r0, {r0, r1, r2, r6, r7, sl, sp, lr}
 80016a0:	080064c9 	stmdaeq	r0, {r0, r3, r6, r7, sl, sp, lr}

080016a4 <drawMeasurement>:
 80016a4:	b5f0      	push	{r4, r5, r6, r7, lr}
 80016a6:	460d      	mov	r5, r1
 80016a8:	461c      	mov	r4, r3
 80016aa:	b09b      	sub	sp, #108	; 0x6c
 80016ac:	4617      	mov	r7, r2
 80016ae:	f7ff fdf5 	bl	800129c <drawTitle>
 80016b2:	4a49      	ldr	r2, [pc, #292]	; (80017d8 <drawMeasurement+0x134>)
 80016b4:	ab08      	add	r3, sp, #32
 80016b6:	6810      	ldr	r0, [r2, #0]
 80016b8:	6851      	ldr	r1, [r2, #4]
 80016ba:	c303      	stmia	r3!, {r0, r1}
 80016bc:	6890      	ldr	r0, [r2, #8]
 80016be:	9001      	str	r0, [sp, #4]
 80016c0:	4846      	ldr	r0, [pc, #280]	; (80017dc <drawMeasurement+0x138>)
 80016c2:	f7ff fde5 	bl	8001290 <setFont>
 80016c6:	a908      	add	r1, sp, #32
 80016c8:	4628      	mov	r0, r5
 80016ca:	aa01      	add	r2, sp, #4
 80016cc:	f7ff fdd8 	bl	8001280 <drawText>
 80016d0:	2100      	movs	r1, #0
 80016d2:	4620      	mov	r0, r4
 80016d4:	f002 feed 	bl	80044b2 <__aeabi_fcmpeq>
 80016d8:	2800      	cmp	r0, #0
 80016da:	d177      	bne.n	80017cc <drawMeasurement+0x128>
 80016dc:	4940      	ldr	r1, [pc, #256]	; (80017e0 <drawMeasurement+0x13c>)
 80016de:	a80a      	add	r0, sp, #40	; 0x28
 80016e0:	f004 fcbc 	bl	800605c <strcpy>
 80016e4:	493f      	ldr	r1, [pc, #252]	; (80017e4 <drawMeasurement+0x140>)
 80016e6:	4620      	mov	r0, r4
 80016e8:	f002 feea 	bl	80044c0 <__aeabi_fcmplt>
 80016ec:	493e      	ldr	r1, [pc, #248]	; (80017e8 <drawMeasurement+0x144>)
 80016ee:	1c05      	adds	r5, r0, #0
 80016f0:	4620      	mov	r0, r4
 80016f2:	bf18      	it	ne
 80016f4:	2501      	movne	r5, #1
 80016f6:	f002 fecd 	bl	8004494 <__aeabi_fmul>
 80016fa:	462a      	mov	r2, r5
 80016fc:	4601      	mov	r1, r0
 80016fe:	a80a      	add	r0, sp, #40	; 0x28
 8001700:	f7ff fa38 	bl	8000b74 <strcatFloat>
 8001704:	4939      	ldr	r1, [pc, #228]	; (80017ec <drawMeasurement+0x148>)
 8001706:	4c3a      	ldr	r4, [pc, #232]	; (80017f0 <drawMeasurement+0x14c>)
 8001708:	a80c      	add	r0, sp, #48	; 0x30
 800170a:	f004 fca7 	bl	800605c <strcpy>
 800170e:	6820      	ldr	r0, [r4, #0]
 8001710:	6861      	ldr	r1, [r4, #4]
 8001712:	ab0e      	add	r3, sp, #56	; 0x38
 8001714:	c303      	stmia	r3!, {r0, r1}
 8001716:	f44f 3380 	mov.w	r3, #65536	; 0x10000
 800171a:	ad1a      	add	r5, sp, #104	; 0x68
 800171c:	f845 3d60 	str.w	r3, [r5, #-96]!
 8001720:	4834      	ldr	r0, [pc, #208]	; (80017f4 <drawMeasurement+0x150>)
 8001722:	f7ff fdb5 	bl	8001290 <setFont>
 8001726:	462b      	mov	r3, r5
 8001728:	aa0e      	add	r2, sp, #56	; 0x38
 800172a:	a90c      	add	r1, sp, #48	; 0x30
 800172c:	a80a      	add	r0, sp, #40	; 0x28
 800172e:	f7ff fdd5 	bl	80012dc <drawValueAndUnit.isra.1>
 8001732:	4622      	mov	r2, r4
 8001734:	2500      	movs	r5, #0
 8001736:	f852 0f08 	ldr.w	r0, [r2, #8]!
 800173a:	ae1a      	add	r6, sp, #104	; 0x68
 800173c:	6851      	ldr	r1, [r2, #4]
 800173e:	ab10      	add	r3, sp, #64	; 0x40
 8001740:	c303      	stmia	r3!, {r0, r1}
 8001742:	f846 5d5c 	str.w	r5, [r6, #-92]!
 8001746:	482c      	ldr	r0, [pc, #176]	; (80017f8 <drawMeasurement+0x154>)
 8001748:	f7ff fda2 	bl	8001290 <setFont>
 800174c:	4632      	mov	r2, r6
 800174e:	a910      	add	r1, sp, #64	; 0x40
 8001750:	4638      	mov	r0, r7
 8001752:	f7ff fd95 	bl	8001280 <drawText>
 8001756:	4622      	mov	r2, r4
 8001758:	270c      	movs	r7, #12
 800175a:	f852 0f10 	ldr.w	r0, [r2, #16]!
 800175e:	ae1a      	add	r6, sp, #104	; 0x68
 8001760:	6851      	ldr	r1, [r2, #4]
 8001762:	ab12      	add	r3, sp, #72	; 0x48
 8001764:	c303      	stmia	r3!, {r0, r1}
 8001766:	f846 7d58 	str.w	r7, [r6, #-88]!
 800176a:	4822      	ldr	r0, [pc, #136]	; (80017f4 <drawMeasurement+0x150>)
 800176c:	f7ff fd90 	bl	8001290 <setFont>
 8001770:	4632      	mov	r2, r6
 8001772:	a912      	add	r1, sp, #72	; 0x48
 8001774:	4821      	ldr	r0, [pc, #132]	; (80017fc <drawMeasurement+0x158>)
 8001776:	f7ff fd83 	bl	8001280 <drawText>
 800177a:	4622      	mov	r2, r4
 800177c:	f852 0f18 	ldr.w	r0, [r2, #24]!
 8001780:	ab14      	add	r3, sp, #80	; 0x50
 8001782:	6851      	ldr	r1, [r2, #4]
 8001784:	aa1a      	add	r2, sp, #104	; 0x68
 8001786:	c303      	stmia	r3!, {r0, r1}
 8001788:	f842 7d54 	str.w	r7, [r2, #-84]!
 800178c:	a914      	add	r1, sp, #80	; 0x50
 800178e:	9820      	ldr	r0, [sp, #128]	; 0x80
 8001790:	f7ff fd76 	bl	8001280 <drawText>
 8001794:	4622      	mov	r2, r4
 8001796:	f852 0f20 	ldr.w	r0, [r2, #32]!
 800179a:	ab16      	add	r3, sp, #88	; 0x58
 800179c:	6851      	ldr	r1, [r2, #4]
 800179e:	aa1a      	add	r2, sp, #104	; 0x68
 80017a0:	c303      	stmia	r3!, {r0, r1}
 80017a2:	f842 5d50 	str.w	r5, [r2, #-80]!
 80017a6:	a916      	add	r1, sp, #88	; 0x58
 80017a8:	9821      	ldr	r0, [sp, #132]	; 0x84
 80017aa:	f7ff fd69 	bl	8001280 <drawText>
 80017ae:	f854 0f28 	ldr.w	r0, [r4, #40]!
 80017b2:	ab18      	add	r3, sp, #96	; 0x60
 80017b4:	6861      	ldr	r1, [r4, #4]
 80017b6:	aa18      	add	r2, sp, #96	; 0x60
 80017b8:	c303      	stmia	r3!, {r0, r1}
 80017ba:	e9dd 0122 	ldrd	r0, r1, [sp, #136]	; 0x88
 80017be:	ab1a      	add	r3, sp, #104	; 0x68
 80017c0:	f843 5d4c 	str.w	r5, [r3, #-76]!
 80017c4:	f7ff fd8a 	bl	80012dc <drawValueAndUnit.isra.1>
 80017c8:	b01b      	add	sp, #108	; 0x6c
 80017ca:	bdf0      	pop	{r4, r5, r6, r7, pc}
 80017cc:	490c      	ldr	r1, [pc, #48]	; (8001800 <drawMeasurement+0x15c>)
 80017ce:	a80a      	add	r0, sp, #40	; 0x28
 80017d0:	f004 fc44 	bl	800605c <strcpy>
 80017d4:	490a      	ldr	r1, [pc, #40]	; (8001800 <drawMeasurement+0x15c>)
 80017d6:	e796      	b.n	8001706 <drawMeasurement+0x62>
 80017d8:	080060e4 	stmdaeq	r0, {r2, r5, r6, r7, sp, lr}
 80017dc:	08006664 	stmdaeq	r0, {r2, r5, r6, r9, sl, sp, lr}
 80017e0:	080064c5 	stmdaeq	r0, {r0, r2, r6, r7, sl, sp, lr}
 80017e4:	3dcccccd 	stclcc	12, cr12, [ip, #820]	; 0x334
 80017e8:	42c80000 	sbcmi	r0, r8, #0
 80017ec:	080075d9 	stmdaeq	r0, {r0, r3, r4, r6, r7, r8, sl, ip, sp, lr}
 80017f0:	080060f0 	stmdaeq	r0, {r4, r5, r6, r7, sp, lr}
 80017f4:	08006bd8 	stmdaeq	r0, {r3, r4, r6, r7, r8, r9, fp, sp, lr}
 80017f8:	08006778 	stmdaeq	r0, {r3, r4, r5, r6, r8, r9, sl, sp, lr}
 80017fc:	08006255 	stmdaeq	r0, {r0, r2, r4, r6, r9, sp, lr}
 8001800:	080062da 	stmdaeq	r0, {r1, r3, r4, r6, r7, r9, sp, lr}

08001804 <drawHistory>:
 8001804:	e92d 4ff0 	stmdb	sp!, {r4, r5, r6, r7, r8, r9, sl, fp, lr}
 8001808:	b099      	sub	sp, #100	; 0x64
 800180a:	4688      	mov	r8, r1
 800180c:	4616      	mov	r6, r2
 800180e:	9301      	str	r3, [sp, #4]
 8001810:	9c23      	ldr	r4, [sp, #140]	; 0x8c
 8001812:	f7ff fd43 	bl	800129c <drawTitle>
 8001816:	4a64      	ldr	r2, [pc, #400]	; (80019a8 <drawHistory+0x1a4>)
 8001818:	4b64      	ldr	r3, [pc, #400]	; (80019ac <drawHistory+0x1a8>)
 800181a:	ad18      	add	r5, sp, #96	; 0x60
 800181c:	e9cd 2306 	strd	r2, r3, [sp, #24]
 8001820:	2329      	movs	r3, #41	; 0x29
 8001822:	4863      	ldr	r0, [pc, #396]	; (80019b0 <drawHistory+0x1ac>)
 8001824:	f845 3d50 	str.w	r3, [r5, #-80]!
 8001828:	f7ff fd32 	bl	8001290 <setFont>
 800182c:	462a      	mov	r2, r5
 800182e:	a906      	add	r1, sp, #24
 8001830:	4640      	mov	r0, r8
 8001832:	f7ff fd89 	bl	8001348 <drawRightAlignedText>
 8001836:	495f      	ldr	r1, [pc, #380]	; (80019b4 <drawHistory+0x1b0>)
 8001838:	4b5f      	ldr	r3, [pc, #380]	; (80019b8 <drawHistory+0x1b4>)
 800183a:	aa18      	add	r2, sp, #96	; 0x60
 800183c:	e9cd 1308 	strd	r1, r3, [sp, #32]
 8001840:	2377      	movs	r3, #119	; 0x77
 8001842:	a908      	add	r1, sp, #32
 8001844:	f842 3d4c 	str.w	r3, [r2, #-76]!
 8001848:	4630      	mov	r0, r6
 800184a:	f7ff fd7d 	bl	8001348 <drawRightAlignedText>
 800184e:	f44f 2360 	mov.w	r3, #917504	; 0xe0000
 8001852:	4d5a      	ldr	r5, [pc, #360]	; (80019bc <drawHistory+0x1b8>)
 8001854:	a80a      	add	r0, sp, #40	; 0x28
 8001856:	e9cd 350a 	strd	r3, r5, [sp, #40]	; 0x28
 800185a:	f7ff fd39 	bl	80012d0 <drawRectangle>
 800185e:	4b58      	ldr	r3, [pc, #352]	; (80019c0 <drawHistory+0x1bc>)
 8001860:	a80c      	add	r0, sp, #48	; 0x30
 8001862:	e9cd 350c 	strd	r3, r5, [sp, #48]	; 0x30
 8001866:	f7ff fd33 	bl	80012d0 <drawRectangle>
 800186a:	2301      	movs	r3, #1
 800186c:	2023      	movs	r0, #35	; 0x23
 800186e:	a918      	add	r1, sp, #96	; 0x60
 8001870:	f801 3d20 	strb.w	r3, [r1, #-32]!
 8001874:	42a3      	cmp	r3, r4
 8001876:	d976      	bls.n	8001966 <drawHistory+0x162>
 8001878:	2700      	movs	r7, #0
 800187a:	2008      	movs	r0, #8
 800187c:	f7ff fce0 	bl	8001240 <setFillColor>
 8001880:	2423      	movs	r4, #35	; 0x23
 8001882:	46b8      	mov	r8, r7
 8001884:	46b9      	mov	r9, r7
 8001886:	b239      	sxth	r1, r7
 8001888:	4588      	cmp	r8, r1
 800188a:	d17a      	bne.n	8001982 <drawHistory+0x17e>
 800188c:	2377      	movs	r3, #119	; 0x77
 800188e:	f109 0901 	add.w	r9, r9, #1
 8001892:	fa0f f989 	sxth.w	r9, r9
 8001896:	fb03 f309 	mul.w	r3, r3, r9
 800189a:	9a22      	ldr	r2, [sp, #136]	; 0x88
 800189c:	fbb3 f3f2 	udiv	r3, r3, r2
 80018a0:	2201      	movs	r2, #1
 80018a2:	fa0f f883 	sxth.w	r8, r3
 80018a6:	2f77      	cmp	r7, #119	; 0x77
 80018a8:	f04f 0523 	mov.w	r5, #35	; 0x23
 80018ac:	d06b      	beq.n	8001986 <drawHistory+0x182>
 80018ae:	9b01      	ldr	r3, [sp, #4]
 80018b0:	443b      	add	r3, r7
 80018b2:	785b      	ldrb	r3, [r3, #1]
 80018b4:	f1c3 03ff 	rsb	r3, r3, #255	; 0xff
 80018b8:	435d      	muls	r5, r3
 80018ba:	122d      	asrs	r5, r5, #8
 80018bc:	3501      	adds	r5, #1
 80018be:	b22d      	sxth	r5, r5
 80018c0:	42a5      	cmp	r5, r4
 80018c2:	bfa6      	itte	ge
 80018c4:	46a3      	movge	fp, r4
 80018c6:	462c      	movge	r4, r5
 80018c8:	46ab      	movlt	fp, r5
 80018ca:	2c23      	cmp	r4, #35	; 0x23
 80018cc:	d001      	beq.n	80018d2 <drawHistory+0xce>
 80018ce:	3401      	adds	r4, #1
 80018d0:	b224      	sxth	r4, r4
 80018d2:	2600      	movs	r6, #0
 80018d4:	1d3b      	adds	r3, r7, #4
 80018d6:	f8ad 3038 	strh.w	r3, [sp, #56]	; 0x38
 80018da:	f04f 0301 	mov.w	r3, #1
 80018de:	46b2      	mov	sl, r6
 80018e0:	f8ad 303c 	strh.w	r3, [sp, #60]	; 0x3c
 80018e4:	2a00      	cmp	r2, #0
 80018e6:	d151      	bne.n	800198c <drawHistory+0x188>
 80018e8:	ab18      	add	r3, sp, #96	; 0x60
 80018ea:	4453      	add	r3, sl
 80018ec:	f813 cc20 	ldrb.w	ip, [r3, #-32]
 80018f0:	f01a 0f01 	tst.w	sl, #1
 80018f4:	bf14      	ite	ne
 80018f6:	2007      	movne	r0, #7
 80018f8:	2008      	moveq	r0, #8
 80018fa:	45b4      	cmp	ip, r6
 80018fc:	d101      	bne.n	8001902 <drawHistory+0xfe>
 80018fe:	f10a 0a01 	add.w	sl, sl, #1
 8001902:	2f00      	cmp	r7, #0
 8001904:	d046      	beq.n	8001994 <drawHistory+0x190>
 8001906:	2977      	cmp	r1, #119	; 0x77
 8001908:	d044      	beq.n	8001994 <drawHistory+0x190>
 800190a:	2e23      	cmp	r6, #35	; 0x23
 800190c:	d042      	beq.n	8001994 <drawHistory+0x190>
 800190e:	45b3      	cmp	fp, r6
 8001910:	dc42      	bgt.n	8001998 <drawHistory+0x194>
 8001912:	42b4      	cmp	r4, r6
 8001914:	dc42      	bgt.n	800199c <drawHistory+0x198>
 8001916:	2807      	cmp	r0, #7
 8001918:	f04f 0323 	mov.w	r3, #35	; 0x23
 800191c:	d041      	beq.n	80019a2 <drawHistory+0x19e>
 800191e:	2006      	movs	r0, #6
 8001920:	b2b6      	uxth	r6, r6
 8001922:	459c      	cmp	ip, r3
 8001924:	bfd4      	ite	le
 8001926:	ebc6 030c 	rsble	r3, r6, ip
 800192a:	ebc6 0303 	rsbgt	r3, r6, r3
 800192e:	f106 0e15 	add.w	lr, r6, #21
 8001932:	e9cd 2102 	strd	r2, r1, [sp, #8]
 8001936:	f8ad 303e 	strh.w	r3, [sp, #62]	; 0x3e
 800193a:	f8ad e03a 	strh.w	lr, [sp, #58]	; 0x3a
 800193e:	f7ff fc7f 	bl	8001240 <setFillColor>
 8001942:	a80e      	add	r0, sp, #56	; 0x38
 8001944:	f7ff fcc4 	bl	80012d0 <drawRectangle>
 8001948:	e9dd 2102 	ldrd	r2, r1, [sp, #8]
 800194c:	f8bd 303e 	ldrh.w	r3, [sp, #62]	; 0x3e
 8001950:	441e      	add	r6, r3
 8001952:	b236      	sxth	r6, r6
 8001954:	2e23      	cmp	r6, #35	; 0x23
 8001956:	ddc5      	ble.n	80018e4 <drawHistory+0xe0>
 8001958:	3701      	adds	r7, #1
 800195a:	2f78      	cmp	r7, #120	; 0x78
 800195c:	462c      	mov	r4, r5
 800195e:	d192      	bne.n	8001886 <drawHistory+0x82>
 8001960:	b019      	add	sp, #100	; 0x64
 8001962:	e8bd 8ff0 	ldmia.w	sp!, {r4, r5, r6, r7, r8, r9, sl, fp, pc}
 8001966:	fb00 f203 	mul.w	r2, r0, r3
 800196a:	fbb2 f2f4 	udiv	r2, r2, r4
 800196e:	eb01 0543 	add.w	r5, r1, r3, lsl #1
 8001972:	b2d2      	uxtb	r2, r2
 8001974:	f805 2c01 	strb.w	r2, [r5, #-1]
 8001978:	3201      	adds	r2, #1
 800197a:	f801 2013 	strb.w	r2, [r1, r3, lsl #1]
 800197e:	3301      	adds	r3, #1
 8001980:	e778      	b.n	8001874 <drawHistory+0x70>
 8001982:	2200      	movs	r2, #0
 8001984:	e78f      	b.n	80018a6 <drawHistory+0xa2>
 8001986:	46a3      	mov	fp, r4
 8001988:	462c      	mov	r4, r5
 800198a:	e7a2      	b.n	80018d2 <drawHistory+0xce>
 800198c:	f04f 0c24 	mov.w	ip, #36	; 0x24
 8001990:	2008      	movs	r0, #8
 8001992:	e7b6      	b.n	8001902 <drawHistory+0xfe>
 8001994:	2324      	movs	r3, #36	; 0x24
 8001996:	e7c3      	b.n	8001920 <drawHistory+0x11c>
 8001998:	465b      	mov	r3, fp
 800199a:	e7c1      	b.n	8001920 <drawHistory+0x11c>
 800199c:	4623      	mov	r3, r4
 800199e:	2004      	movs	r0, #4
 80019a0:	e7be      	b.n	8001920 <drawHistory+0x11c>
 80019a2:	2005      	movs	r0, #5
 80019a4:	e7bc      	b.n	8001920 <drawHistory+0x11c>
 80019a6:	bf00      	nop
 80019a8:	000e0052 	andeq	r0, lr, r2, asr r0
 80019ac:	0007002a 	andeq	r0, r7, sl, lsr #32
 80019b0:	08006bd8 	stmdaeq	r0, {r3, r4, r6, r7, r8, r9, fp, sp, lr}
 80019b4:	00390004 	eorseq	r0, r9, r4
 80019b8:	00070078 	andeq	r0, r7, r8, ror r0
 80019bc:	00320004 	eorseq	r0, r2, r4
 80019c0:	000e007c 	andeq	r0, lr, ip, ror r0

080019c4 <drawRNG>:
 80019c4:	b570      	push	{r4, r5, r6, lr}
 80019c6:	4c15      	ldr	r4, [pc, #84]	; (8001a1c <drawRNG+0x58>)
 80019c8:	b086      	sub	sp, #24
 80019ca:	460e      	mov	r6, r1
 80019cc:	4615      	mov	r5, r2
 80019ce:	f7ff fc65 	bl	800129c <drawTitle>
 80019d2:	4622      	mov	r2, r4
 80019d4:	f852 0f9c 	ldr.w	r0, [r2, #156]!
 80019d8:	ab02      	add	r3, sp, #8
 80019da:	6851      	ldr	r1, [r2, #4]
 80019dc:	c303      	stmia	r3!, {r0, r1}
 80019de:	f8d4 00a4 	ldr.w	r0, [r4, #164]	; 0xa4
 80019e2:	9000      	str	r0, [sp, #0]
 80019e4:	480e      	ldr	r0, [pc, #56]	; (8001a20 <drawRNG+0x5c>)
 80019e6:	f7ff fc53 	bl	8001290 <setFont>
 80019ea:	466a      	mov	r2, sp
 80019ec:	a902      	add	r1, sp, #8
 80019ee:	4630      	mov	r0, r6
 80019f0:	f7ff fc46 	bl	8001280 <drawText>
 80019f4:	f854 0fa8 	ldr.w	r0, [r4, #168]!
 80019f8:	ab04      	add	r3, sp, #16
 80019fa:	6861      	ldr	r1, [r4, #4]
 80019fc:	ac06      	add	r4, sp, #24
 80019fe:	c303      	stmia	r3!, {r0, r1}
 8001a00:	2340      	movs	r3, #64	; 0x40
 8001a02:	4808      	ldr	r0, [pc, #32]	; (8001a24 <drawRNG+0x60>)
 8001a04:	f844 3d14 	str.w	r3, [r4, #-20]!
 8001a08:	f7ff fc42 	bl	8001290 <setFont>
 8001a0c:	4622      	mov	r2, r4
 8001a0e:	a904      	add	r1, sp, #16
 8001a10:	4628      	mov	r0, r5
 8001a12:	f7ff fcb1 	bl	8001378 <drawCenteredText>
 8001a16:	b006      	add	sp, #24
 8001a18:	bd70      	pop	{r4, r5, r6, pc}
 8001a1a:	bf00      	nop
 8001a1c:	08006084 	stmdaeq	r0, {r2, r7, sp, lr}
 8001a20:	08006bd8 	stmdaeq	r0, {r3, r4, r6, r7, r8, r9, fp, sp, lr}
 8001a24:	08006778 	stmdaeq	r0, {r3, r4, r5, r6, r8, r9, sl, sp, lr}

08001a28 <drawStatistics>:
 8001a28:	e92d 47f0 	stmdb	sp!, {r4, r5, r6, r7, r8, r9, sl, lr}
 8001a2c:	484f      	ldr	r0, [pc, #316]	; (8001b6c <drawStatistics+0x144>)
 8001a2e:	b098      	sub	sp, #96	; 0x60
 8001a30:	f7ff fc34 	bl	800129c <drawTitle>
 8001a34:	484e      	ldr	r0, [pc, #312]	; (8001b70 <drawStatistics+0x148>)
 8001a36:	f7ff fc2b 	bl	8001290 <setFont>
 8001a3a:	2500      	movs	r5, #0
 8001a3c:	f04f 587e 	mov.w	r8, #1065353216	; 0x3f800000
 8001a40:	4f4c      	ldr	r7, [pc, #304]	; (8001b74 <drawStatistics+0x14c>)
 8001a42:	f8df 9164 	ldr.w	r9, [pc, #356]	; 8001ba8 <drawStatistics+0x180>
 8001a46:	4639      	mov	r1, r7
 8001a48:	a808      	add	r0, sp, #32
 8001a4a:	f004 fb07 	bl	800605c <strcpy>
 8001a4e:	4639      	mov	r1, r7
 8001a50:	a810      	add	r0, sp, #64	; 0x40
 8001a52:	f004 fb03 	bl	800605c <strcpy>
 8001a56:	4639      	mov	r1, r7
 8001a58:	a804      	add	r0, sp, #16
 8001a5a:	f004 faff 	bl	800605c <strcpy>
 8001a5e:	1e6b      	subs	r3, r5, #1
 8001a60:	2b03      	cmp	r3, #3
 8001a62:	d803      	bhi.n	8001a6c <drawStatistics+0x44>
 8001a64:	e8df f003 	tbb	[pc, r3]
 8001a68:	7469493d 	strbtvc	r4, [r9], #-2365	; 0xfffff6c3
 8001a6c:	4942      	ldr	r1, [pc, #264]	; (8001b78 <drawStatistics+0x150>)
 8001a6e:	a808      	add	r0, sp, #32
 8001a70:	f004 faf4 	bl	800605c <strcpy>
 8001a74:	f001 fde8 	bl	8003648 <getTubeTime>
 8001a78:	4601      	mov	r1, r0
 8001a7a:	a810      	add	r0, sp, #64	; 0x40
 8001a7c:	f7ff f850 	bl	8000b20 <strcatTime>
 8001a80:	4b3e      	ldr	r3, [pc, #248]	; (8001b7c <drawStatistics+0x154>)
 8001a82:	f04f 0a00 	mov.w	sl, #0
 8001a86:	9303      	str	r3, [sp, #12]
 8001a88:	230c      	movs	r3, #12
 8001a8a:	ae18      	add	r6, sp, #96	; 0x60
 8001a8c:	00ec      	lsls	r4, r5, #3
 8001a8e:	f846 3d5c 	str.w	r3, [r6, #-92]!
 8001a92:	3415      	adds	r4, #21
 8001a94:	b224      	sxth	r4, r4
 8001a96:	4632      	mov	r2, r6
 8001a98:	a902      	add	r1, sp, #8
 8001a9a:	a808      	add	r0, sp, #32
 8001a9c:	f8ad a008 	strh.w	sl, [sp, #8]
 8001aa0:	f8ad 400a 	strh.w	r4, [sp, #10]
 8001aa4:	f7ff fbec 	bl	8001280 <drawText>
 8001aa8:	2348      	movs	r3, #72	; 0x48
 8001aaa:	f8ad 3008 	strh.w	r3, [sp, #8]
 8001aae:	4b34      	ldr	r3, [pc, #208]	; (8001b80 <drawStatistics+0x158>)
 8001ab0:	aa02      	add	r2, sp, #8
 8001ab2:	9303      	str	r3, [sp, #12]
 8001ab4:	a904      	add	r1, sp, #16
 8001ab6:	4633      	mov	r3, r6
 8001ab8:	a810      	add	r0, sp, #64	; 0x40
 8001aba:	3501      	adds	r5, #1
 8001abc:	f8ad 400a 	strh.w	r4, [sp, #10]
 8001ac0:	f8cd a004 	str.w	sl, [sp, #4]
 8001ac4:	f7ff fc0a 	bl	80012dc <drawValueAndUnit.isra.1>
 8001ac8:	2d05      	cmp	r5, #5
 8001aca:	d1bc      	bne.n	8001a46 <drawStatistics+0x1e>
 8001acc:	f44f 1274 	mov.w	r2, #3997696	; 0x3d0000
 8001ad0:	4b2c      	ldr	r3, [pc, #176]	; (8001b84 <drawStatistics+0x15c>)
 8001ad2:	a802      	add	r0, sp, #8
 8001ad4:	e9cd 2302 	strd	r2, r3, [sp, #8]
 8001ad8:	f7ff fbfa 	bl	80012d0 <drawRectangle>
 8001adc:	b018      	add	sp, #96	; 0x60
 8001ade:	e8bd 87f0 	ldmia.w	sp!, {r4, r5, r6, r7, r8, r9, sl, pc}
 8001ae2:	4929      	ldr	r1, [pc, #164]	; (8001b88 <drawStatistics+0x160>)
 8001ae4:	a808      	add	r0, sp, #32
 8001ae6:	f004 fab9 	bl	800605c <strcpy>
 8001aea:	f001 fdb9 	bl	8003660 <getTubePulseCount>
 8001aee:	2200      	movs	r2, #0
 8001af0:	4601      	mov	r1, r0
 8001af2:	a810      	add	r0, sp, #64	; 0x40
 8001af4:	f7fe ffda 	bl	8000aac <strcatUInt32>
 8001af8:	e7c2      	b.n	8001a80 <drawStatistics+0x58>
 8001afa:	4924      	ldr	r1, [pc, #144]	; (8001b8c <drawStatistics+0x164>)
 8001afc:	a808      	add	r0, sp, #32
 8001afe:	f004 faad 	bl	800605c <strcpy>
 8001b02:	f000 f9e5 	bl	8001ed0 <getTubeDeadTime>
 8001b06:	4641      	mov	r1, r8
 8001b08:	4604      	mov	r4, r0
 8001b0a:	f002 fcde 	bl	80044ca <__aeabi_fcmpge>
 8001b0e:	b120      	cbz	r0, 8001b1a <drawStatistics+0xf2>
 8001b10:	491f      	ldr	r1, [pc, #124]	; (8001b90 <drawStatistics+0x168>)
 8001b12:	a810      	add	r0, sp, #64	; 0x40
 8001b14:	f004 faa2 	bl	800605c <strcpy>
 8001b18:	e7b2      	b.n	8001a80 <drawStatistics+0x58>
 8001b1a:	491e      	ldr	r1, [pc, #120]	; (8001b94 <drawStatistics+0x16c>)
 8001b1c:	a810      	add	r0, sp, #64	; 0x40
 8001b1e:	f004 fa8e 	bl	800603e <strcat>
 8001b22:	4649      	mov	r1, r9
 8001b24:	4620      	mov	r0, r4
 8001b26:	f002 fcb5 	bl	8004494 <__aeabi_fmul>
 8001b2a:	2201      	movs	r2, #1
 8001b2c:	4601      	mov	r1, r0
 8001b2e:	a810      	add	r0, sp, #64	; 0x40
 8001b30:	f7ff f820 	bl	8000b74 <strcatFloat>
 8001b34:	4918      	ldr	r1, [pc, #96]	; (8001b98 <drawStatistics+0x170>)
 8001b36:	a804      	add	r0, sp, #16
 8001b38:	e7ec      	b.n	8001b14 <drawStatistics+0xec>
 8001b3a:	4918      	ldr	r1, [pc, #96]	; (8001b9c <drawStatistics+0x174>)
 8001b3c:	a808      	add	r0, sp, #32
 8001b3e:	f004 fa8d 	bl	800605c <strcpy>
 8001b42:	f002 fff1 	bl	8004b28 <getDeviceId>
 8001b46:	4601      	mov	r1, r0
 8001b48:	a804      	add	r0, sp, #16
 8001b4a:	f7ff f916 	bl	8000d7a <strcatUInt32Hex>
 8001b4e:	e797      	b.n	8001a80 <drawStatistics+0x58>
 8001b50:	4913      	ldr	r1, [pc, #76]	; (8001ba0 <drawStatistics+0x178>)
 8001b52:	a808      	add	r0, sp, #32
 8001b54:	f004 fa82 	bl	800605c <strcpy>
 8001b58:	f002 fc56 	bl	8004408 <getDeviceTemperature>
 8001b5c:	2201      	movs	r2, #1
 8001b5e:	4601      	mov	r1, r0
 8001b60:	a810      	add	r0, sp, #64	; 0x40
 8001b62:	f7ff f807 	bl	8000b74 <strcatFloat>
 8001b66:	490f      	ldr	r1, [pc, #60]	; (8001ba4 <drawStatistics+0x17c>)
 8001b68:	e7e5      	b.n	8001b36 <drawStatistics+0x10e>
 8001b6a:	bf00      	nop
 8001b6c:	080064cb 	stmdaeq	r0, {r0, r1, r3, r6, r7, sl, sp, lr}
 8001b70:	08006bd8 	stmdaeq	r0, {r3, r4, r6, r7, r8, r9, fp, sp, lr}
 8001b74:	080062da 	stmdaeq	r0, {r1, r3, r4, r6, r7, r9, sp, lr}
 8001b78:	080064d6 	stmdaeq	r0, {r1, r2, r4, r6, r7, sl, sp, lr}
 8001b7c:	00080048 	andeq	r0, r8, r8, asr #32
 8001b80:	00080038 	andeq	r0, r8, r8, lsr r0
 8001b84:	00030080 	andeq	r0, r3, r0, lsl #1
 8001b88:	080064e5 	stmdaeq	r0, {r0, r2, r5, r6, r7, sl, sp, lr}
 8001b8c:	080064f6 	stmdaeq	r0, {r1, r2, r4, r5, r6, r7, sl, sp, lr}
 8001b90:	0800737b 	stmdaeq	r0, {r0, r1, r3, r4, r5, r6, r8, r9, ip, sp, lr}
 8001b94:	08006505 	stmdaeq	r0, {r0, r2, r8, sl, sp, lr}
 8001b98:	08006508 	stmdaeq	r0, {r3, r8, sl, sp, lr}
 8001b9c:	0800650c 	stmdaeq	r0, {r2, r3, r8, sl, sp, lr}
 8001ba0:	08006516 	stmdaeq	r0, {r1, r2, r4, r8, sl, sp, lr}
 8001ba4:	08006523 	stmdaeq	r0, {r0, r1, r5, r8, sl, sp, lr}
 8001ba8:	49742400 	ldmdbmi	r4!, {sl, sp}^

08001bac <drawGame>:
 8001bac:	e92d 4ff0 	stmdb	sp!, {r4, r5, r6, r7, r8, r9, sl, fp, lr}
 8001bb0:	2500      	movs	r5, #0
 8001bb2:	4604      	mov	r4, r0
 8001bb4:	462f      	mov	r7, r5
 8001bb6:	46a9      	mov	r9, r5
 8001bb8:	b091      	sub	sp, #68	; 0x44
 8001bba:	4852      	ldr	r0, [pc, #328]	; (8001d04 <drawGame+0x158>)
 8001bbc:	4688      	mov	r8, r1
 8001bbe:	4616      	mov	r6, r2
 8001bc0:	f7ff fb66 	bl	8001290 <setFont>
 8001bc4:	4b50      	ldr	r3, [pc, #320]	; (8001d08 <drawGame+0x15c>)
 8001bc6:	9505      	str	r5, [sp, #20]
 8001bc8:	9309      	str	r3, [sp, #36]	; 0x24
 8001bca:	1e63      	subs	r3, r4, #1
 8001bcc:	9301      	str	r3, [sp, #4]
 8001bce:	4b4f      	ldr	r3, [pc, #316]	; (8001d0c <drawGame+0x160>)
 8001bd0:	2400      	movs	r4, #0
 8001bd2:	9a01      	ldr	r2, [sp, #4]
 8001bd4:	fa0f fb85 	sxth.w	fp, r5
 8001bd8:	eb02 0a05 	add.w	sl, r2, r5
 8001bdc:	f81a 1f01 	ldrb.w	r1, [sl, #1]!
 8001be0:	f001 0007 	and.w	r0, r1, #7
 8001be4:	08ca      	lsrs	r2, r1, #3
 8001be6:	06c9      	lsls	r1, r1, #27
 8001be8:	f810 c003 	ldrb.w	ip, [r0, r3]
 8001bec:	d57e      	bpl.n	8001cec <drawGame+0x140>
 8001bee:	43d2      	mvns	r2, r2
 8001bf0:	f04c 0110 	orr.w	r1, ip, #16
 8001bf4:	f002 0001 	and.w	r0, r2, #1
 8001bf8:	2800      	cmp	r0, #0
 8001bfa:	bf0c      	ite	eq
 8001bfc:	2010      	moveq	r0, #16
 8001bfe:	200f      	movne	r0, #15
 8001c00:	e9cd 1302 	strd	r1, r3, [sp, #8]
 8001c04:	f7ff fb1c 	bl	8001240 <setFillColor>
 8001c08:	9902      	ldr	r1, [sp, #8]
 8001c0a:	f8ad 4020 	strh.w	r4, [sp, #32]
 8001c0e:	3409      	adds	r4, #9
 8001c10:	f88d 1038 	strb.w	r1, [sp, #56]	; 0x38
 8001c14:	aa05      	add	r2, sp, #20
 8001c16:	a908      	add	r1, sp, #32
 8001c18:	a80e      	add	r0, sp, #56	; 0x38
 8001c1a:	b2a4      	uxth	r4, r4
 8001c1c:	f88d 9039 	strb.w	r9, [sp, #57]	; 0x39
 8001c20:	f8ad b022 	strh.w	fp, [sp, #34]	; 0x22
 8001c24:	f7ff fb2c 	bl	8001280 <drawText>
 8001c28:	2c48      	cmp	r4, #72	; 0x48
 8001c2a:	9b03      	ldr	r3, [sp, #12]
 8001c2c:	d1d6      	bne.n	8001bdc <drawGame+0x30>
 8001c2e:	3508      	adds	r5, #8
 8001c30:	2d40      	cmp	r5, #64	; 0x40
 8001c32:	f087 0701 	eor.w	r7, r7, #1
 8001c36:	d1cb      	bne.n	8001bd0 <drawGame+0x24>
 8001c38:	4835      	ldr	r0, [pc, #212]	; (8001d10 <drawGame+0x164>)
 8001c3a:	f7ff fb29 	bl	8001290 <setFont>
 8001c3e:	2002      	movs	r0, #2
 8001c40:	f7ff fafe 	bl	8001240 <setFillColor>
 8001c44:	4a33      	ldr	r2, [pc, #204]	; (8001d14 <drawGame+0x168>)
 8001c46:	ab0a      	add	r3, sp, #40	; 0x28
 8001c48:	6810      	ldr	r0, [r2, #0]
 8001c4a:	6851      	ldr	r1, [r2, #4]
 8001c4c:	2708      	movs	r7, #8
 8001c4e:	c303      	stmia	r3!, {r0, r1}
 8001c50:	6890      	ldr	r0, [r2, #8]
 8001c52:	a90a      	add	r1, sp, #40	; 0x28
 8001c54:	9006      	str	r0, [sp, #24]
 8001c56:	aa06      	add	r2, sp, #24
 8001c58:	4640      	mov	r0, r8
 8001c5a:	f7ff fb11 	bl	8001280 <drawText>
 8001c5e:	2314      	movs	r3, #20
 8001c60:	f04f 0a20 	mov.w	sl, #32
 8001c64:	f8ad 9012 	strh.w	r9, [sp, #18]
 8001c68:	f8ad 3022 	strh.w	r3, [sp, #34]	; 0x22
 8001c6c:	f8ad 7026 	strh.w	r7, [sp, #38]	; 0x26
 8001c70:	f106 0924 	add.w	r9, r6, #36	; 0x24
 8001c74:	ad10      	add	r5, sp, #64	; 0x40
 8001c76:	f825 7d30 	strh.w	r7, [r5, #-48]!
 8001c7a:	4630      	mov	r0, r6
 8001c7c:	462a      	mov	r2, r5
 8001c7e:	a908      	add	r1, sp, #32
 8001c80:	f8ad 4020 	strh.w	r4, [sp, #32]
 8001c84:	f8ad a024 	strh.w	sl, [sp, #36]	; 0x24
 8001c88:	f7ff fafa 	bl	8001280 <drawText>
 8001c8c:	f8bd 3020 	ldrh.w	r3, [sp, #32]
 8001c90:	1db0      	adds	r0, r6, #6
 8001c92:	3320      	adds	r3, #32
 8001c94:	f8ad 3020 	strh.w	r3, [sp, #32]
 8001c98:	2318      	movs	r3, #24
 8001c9a:	f8ad 3024 	strh.w	r3, [sp, #36]	; 0x24
 8001c9e:	2300      	movs	r3, #0
 8001ca0:	462a      	mov	r2, r5
 8001ca2:	a908      	add	r1, sp, #32
 8001ca4:	f8ad 3010 	strh.w	r3, [sp, #16]
 8001ca8:	f7ff faea 	bl	8001280 <drawText>
 8001cac:	f8bd 3022 	ldrh.w	r3, [sp, #34]	; 0x22
 8001cb0:	360c      	adds	r6, #12
 8001cb2:	3308      	adds	r3, #8
 8001cb4:	45b1      	cmp	r9, r6
 8001cb6:	f8ad 3022 	strh.w	r3, [sp, #34]	; 0x22
 8001cba:	d1db      	bne.n	8001c74 <drawGame+0xc8>
 8001cbc:	4c16      	ldr	r4, [pc, #88]	; (8001d18 <drawGame+0x16c>)
 8001cbe:	ab0c      	add	r3, sp, #48	; 0x30
 8001cc0:	6820      	ldr	r0, [r4, #0]
 8001cc2:	6861      	ldr	r1, [r4, #4]
 8001cc4:	aa07      	add	r2, sp, #28
 8001cc6:	c303      	stmia	r3!, {r0, r1}
 8001cc8:	68a0      	ldr	r0, [r4, #8]
 8001cca:	a90c      	add	r1, sp, #48	; 0x30
 8001ccc:	9007      	str	r0, [sp, #28]
 8001cce:	f108 0010 	add.w	r0, r8, #16
 8001cd2:	f7ff fad5 	bl	8001280 <drawText>
 8001cd6:	f854 0f0c 	ldr.w	r0, [r4, #12]!
 8001cda:	ab0e      	add	r3, sp, #56	; 0x38
 8001cdc:	6861      	ldr	r1, [r4, #4]
 8001cde:	c303      	stmia	r3!, {r0, r1}
 8001ce0:	a80e      	add	r0, sp, #56	; 0x38
 8001ce2:	f7ff faf5 	bl	80012d0 <drawRectangle>
 8001ce6:	b011      	add	sp, #68	; 0x44
 8001ce8:	e8bd 8ff0 	ldmia.w	sp!, {r4, r5, r6, r7, r8, r9, sl, fp, pc}
 8001cec:	19e0      	adds	r0, r4, r7
 8001cee:	f000 0001 	and.w	r0, r0, #1
 8001cf2:	f002 0101 	and.w	r1, r2, #1
 8001cf6:	4041      	eors	r1, r0
 8001cf8:	f081 0101 	eor.w	r1, r1, #1
 8001cfc:	ea4c 01c1 	orr.w	r1, ip, r1, lsl #3
 8001d00:	e77a      	b.n	8001bf8 <drawGame+0x4c>
 8001d02:	bf00      	nop
 8001d04:	08006527 	stmdaeq	r0, {r0, r1, r2, r5, r8, sl, sp, lr}
 8001d08:	00080009 	andeq	r0, r8, r9
 8001d0c:	080064bc 	stmdaeq	r0, {r2, r3, r4, r5, r7, sl, sp, lr}
 8001d10:	08006bd8 	stmdaeq	r0, {r3, r4, r6, r7, r8, r9, fp, sp, lr}
 8001d14:	08006134 	stmdaeq	r0, {r2, r4, r5, r8, sp, lr}
 8001d18:	08006140 	stmdaeq	r0, {r6, r8, sp, lr}

08001d1c <updateTimer>:
 8001d1c:	6803      	ldr	r3, [r0, #0]
 8001d1e:	2b00      	cmp	r3, #0
 8001d20:	d006      	beq.n	8001d30 <updateTimer+0x14>
 8001d22:	dd08      	ble.n	8001d36 <updateTimer+0x1a>
 8001d24:	3b01      	subs	r3, #1
 8001d26:	6003      	str	r3, [r0, #0]
 8001d28:	1c18      	adds	r0, r3, #0
 8001d2a:	bf18      	it	ne
 8001d2c:	2001      	movne	r0, #1
 8001d2e:	4770      	bx	lr
 8001d30:	f04f 30ff 	mov.w	r0, #4294967295
 8001d34:	4770      	bx	lr
 8001d36:	2001      	movs	r0, #1
 8001d38:	4770      	bx	lr
	...

08001d3c <setDisplayTimer>:
 8001d3c:	2801      	cmp	r0, #1
 8001d3e:	b538      	push	{r3, r4, r5, lr}
 8001d40:	4604      	mov	r4, r0
 8001d42:	4d08      	ldr	r5, [pc, #32]	; (8001d64 <setDisplayTimer+0x28>)
 8001d44:	d103      	bne.n	8001d4e <setDisplayTimer+0x12>
 8001d46:	68eb      	ldr	r3, [r5, #12]
 8001d48:	42a3      	cmp	r3, r4
 8001d4a:	db07      	blt.n	8001d5c <setDisplayTimer+0x20>
 8001d4c:	bd38      	pop	{r3, r4, r5, pc}
 8001d4e:	2001      	movs	r0, #1
 8001d50:	f002 fcce 	bl	80046f0 <setDisplayBacklight>
 8001d54:	2c00      	cmp	r4, #0
 8001d56:	daf6      	bge.n	8001d46 <setDisplayTimer+0xa>
 8001d58:	60ec      	str	r4, [r5, #12]
 8001d5a:	e7f7      	b.n	8001d4c <setDisplayTimer+0x10>
 8001d5c:	68eb      	ldr	r3, [r5, #12]
 8001d5e:	3301      	adds	r3, #1
 8001d60:	d1fa      	bne.n	8001d58 <setDisplayTimer+0x1c>
 8001d62:	e7f3      	b.n	8001d4c <setDisplayTimer+0x10>
 8001d64:	200000ec 	andcs	r0, r0, ip, ror #1

08001d68 <initEvents>:
 8001d68:	b508      	push	{r3, lr}
 8001d6a:	f002 fcd3 	bl	8004714 <initEventsController>
 8001d6e:	f04f 32ff 	mov.w	r2, #4294967295
 8001d72:	4b04      	ldr	r3, [pc, #16]	; (8001d84 <initEvents+0x1c>)
 8001d74:	f44f 707a 	mov.w	r0, #1000	; 0x3e8
 8001d78:	609a      	str	r2, [r3, #8]
 8001d7a:	2219      	movs	r2, #25
 8001d7c:	e9c3 2007 	strd	r2, r0, [r3, #28]
 8001d80:	bd08      	pop	{r3, pc}
 8001d82:	bf00      	nop
 8001d84:	200000ec 	andcs	r0, r0, ip, ror #1

08001d88 <onTick>:
 8001d88:	b573      	push	{r0, r1, r4, r5, r6, lr}
 8001d8a:	4c2c      	ldr	r4, [pc, #176]	; (8001e3c <onTick+0xb4>)
 8001d8c:	f894 302c 	ldrb.w	r3, [r4, #44]	; 0x2c
 8001d90:	2b00      	cmp	r3, #0
 8001d92:	d143      	bne.n	8001e1c <onTick+0x94>
 8001d94:	482a      	ldr	r0, [pc, #168]	; (8001e40 <onTick+0xb8>)
 8001d96:	f7ff ffc1 	bl	8001d1c <updateTimer>
 8001d9a:	b918      	cbnz	r0, 8001da4 <onTick+0x1c>
 8001d9c:	2319      	movs	r3, #25
 8001d9e:	61e3      	str	r3, [r4, #28]
 8001da0:	f000 fc48 	bl	8002634 <onKeyboardTick>
 8001da4:	4827      	ldr	r0, [pc, #156]	; (8001e44 <onTick+0xbc>)
 8001da6:	f7ff ffb9 	bl	8001d1c <updateTimer>
 8001daa:	4602      	mov	r2, r0
 8001dac:	2800      	cmp	r0, #0
 8001dae:	d042      	beq.n	8001e36 <onTick+0xae>
 8001db0:	2801      	cmp	r0, #1
 8001db2:	d036      	beq.n	8001e22 <onTick+0x9a>
 8001db4:	4824      	ldr	r0, [pc, #144]	; (8001e48 <onTick+0xc0>)
 8001db6:	f7ff ffb1 	bl	8001d1c <updateTimer>
 8001dba:	b908      	cbnz	r0, 8001dc0 <onTick+0x38>
 8001dbc:	f002 fc98 	bl	80046f0 <setDisplayBacklight>
 8001dc0:	4822      	ldr	r0, [pc, #136]	; (8001e4c <onTick+0xc4>)
 8001dc2:	f7ff ffab 	bl	8001d1c <updateTimer>
 8001dc6:	b908      	cbnz	r0, 8001dcc <onTick+0x44>
 8001dc8:	f002 ffcc 	bl	8004d64 <setVibrator>
 8001dcc:	b002      	add	sp, #8
 8001dce:	bd70      	pop	{r4, r5, r6, pc}
 8001dd0:	9801      	ldr	r0, [sp, #4]
 8001dd2:	f001 fddd 	bl	8003990 <onRNGPulse>
 8001dd6:	7823      	ldrb	r3, [r4, #0]
 8001dd8:	9a01      	ldr	r2, [sp, #4]
 8001dda:	b1eb      	cbz	r3, 8001e18 <onTick+0x90>
 8001ddc:	6863      	ldr	r3, [r4, #4]
 8001dde:	68a1      	ldr	r1, [r4, #8]
 8001de0:	1ad3      	subs	r3, r2, r3
 8001de2:	4299      	cmp	r1, r3
 8001de4:	d900      	bls.n	8001de8 <onTick+0x60>
 8001de6:	60a3      	str	r3, [r4, #8]
 8001de8:	6062      	str	r2, [r4, #4]
 8001dea:	3501      	adds	r5, #1
 8001dec:	a801      	add	r0, sp, #4
 8001dee:	f002 ff89 	bl	8004d04 <getTubePulse>
 8001df2:	2800      	cmp	r0, #0
 8001df4:	d1ec      	bne.n	8001dd0 <onTick+0x48>
 8001df6:	4628      	mov	r0, r5
 8001df8:	f000 ff44 	bl	8002c84 <onMeasurementTick>
 8001dfc:	4814      	ldr	r0, [pc, #80]	; (8001e50 <onTick+0xc8>)
 8001dfe:	f7ff ff8d 	bl	8001d1c <updateTimer>
 8001e02:	2800      	cmp	r0, #0
 8001e04:	d1c6      	bne.n	8001d94 <onTick+0xc>
 8001e06:	f44f 737a 	mov.w	r3, #1000	; 0x3e8
 8001e0a:	6223      	str	r3, [r4, #32]
 8001e0c:	6a63      	ldr	r3, [r4, #36]	; 0x24
 8001e0e:	3301      	adds	r3, #1
 8001e10:	6263      	str	r3, [r4, #36]	; 0x24
 8001e12:	f000 ff4d 	bl	8002cb0 <onMeasurementPeriod>
 8001e16:	e7bd      	b.n	8001d94 <onTick+0xc>
 8001e18:	7026      	strb	r6, [r4, #0]
 8001e1a:	e7e5      	b.n	8001de8 <onTick+0x60>
 8001e1c:	2500      	movs	r5, #0
 8001e1e:	2601      	movs	r6, #1
 8001e20:	e7e4      	b.n	8001dec <onTick+0x64>
 8001e22:	480c      	ldr	r0, [pc, #48]	; (8001e54 <onTick+0xcc>)
 8001e24:	f7ff ff7a 	bl	8001d1c <updateTimer>
 8001e28:	b120      	cbz	r0, 8001e34 <onTick+0xac>
 8001e2a:	2801      	cmp	r0, #1
 8001e2c:	d1c2      	bne.n	8001db4 <onTick+0x2c>
 8001e2e:	f7fe fc6b 	bl	8000708 <getRandomBit>
 8001e32:	e000      	b.n	8001e36 <onTick+0xae>
 8001e34:	4610      	mov	r0, r2
 8001e36:	f002 fb1d 	bl	8004474 <setBuzzer>
 8001e3a:	e7bb      	b.n	8001db4 <onTick+0x2c>
 8001e3c:	200000ec 	andcs	r0, r0, ip, ror #1
 8001e40:	20000108 	andcs	r0, r0, r8, lsl #2
 8001e44:	200000fc 	strdcs	r0, [r0], -ip
 8001e48:	200000f8 	strdcs	r0, [r0], -r8
 8001e4c:	20000104 	andcs	r0, r0, r4, lsl #2
 8001e50:	2000010c 	andcs	r0, r0, ip, lsl #2
 8001e54:	20000100 	andcs	r0, r0, r0, lsl #2

08001e58 <getTick>:
 8001e58:	4b01      	ldr	r3, [pc, #4]	; (8001e60 <getTick+0x8>)
 8001e5a:	6818      	ldr	r0, [r3, #0]
 8001e5c:	4770      	bx	lr
 8001e5e:	bf00      	nop
 8001e60:	20000d78 	andcs	r0, r0, r8, ror sp

08001e64 <syncTimerThread>:
 8001e64:	2001      	movs	r0, #1
 8001e66:	f002 bc87 	b.w	8004778 <sleep>
	...

08001e6c <enableMeasurements>:
 8001e6c:	2201      	movs	r2, #1
 8001e6e:	4b02      	ldr	r3, [pc, #8]	; (8001e78 <enableMeasurements+0xc>)
 8001e70:	f883 202c 	strb.w	r2, [r3, #44]	; 0x2c
 8001e74:	4770      	bx	lr
 8001e76:	bf00      	nop
 8001e78:	200000ec 	andcs	r0, r0, ip, ror #1

08001e7c <disableMeasurements>:
 8001e7c:	b508      	push	{r3, lr}
 8001e7e:	f7ff fff1 	bl	8001e64 <syncTimerThread>
 8001e82:	2201      	movs	r2, #1
 8001e84:	4b03      	ldr	r3, [pc, #12]	; (8001e94 <disableMeasurements+0x18>)
 8001e86:	60da      	str	r2, [r3, #12]
 8001e88:	611a      	str	r2, [r3, #16]
 8001e8a:	619a      	str	r2, [r3, #24]
 8001e8c:	2200      	movs	r2, #0
 8001e8e:	f883 202c 	strb.w	r2, [r3, #44]	; 0x2c
 8001e92:	bd08      	pop	{r3, pc}
 8001e94:	200000ec 	andcs	r0, r0, ip, ror #1

08001e98 <dispatchEvents>:
 8001e98:	b508      	push	{r3, lr}
 8001e9a:	2000      	movs	r0, #0
 8001e9c:	f002 fc6c 	bl	8004778 <sleep>
 8001ea0:	4b0a      	ldr	r3, [pc, #40]	; (8001ecc <dispatchEvents+0x34>)
 8001ea2:	6a5a      	ldr	r2, [r3, #36]	; 0x24
 8001ea4:	6a99      	ldr	r1, [r3, #40]	; 0x28
 8001ea6:	4291      	cmp	r1, r2
 8001ea8:	d00a      	beq.n	8001ec0 <dispatchEvents+0x28>
 8001eaa:	629a      	str	r2, [r3, #40]	; 0x28
 8001eac:	f000 ff10 	bl	8002cd0 <updateMeasurements>
 8001eb0:	f7ff f90a 	bl	80010c8 <updateDatalog>
 8001eb4:	f002 fa1e 	bl	80042f4 <updateADC>
 8001eb8:	f000 fb98 	bl	80025ec <updateGame>
 8001ebc:	f003 f9ec 	bl	8005298 <updateView>
 8001ec0:	f003 f9aa 	bl	8005218 <dispatchViewEvents>
 8001ec4:	e8bd 4008 	ldmia.w	sp!, {r3, lr}
 8001ec8:	f7fe bca6 	b.w	8000818 <dispatchCommEvents>
 8001ecc:	200000ec 	andcs	r0, r0, ip, ror #1

08001ed0 <getTubeDeadTime>:
 8001ed0:	b508      	push	{r3, lr}
 8001ed2:	4b04      	ldr	r3, [pc, #16]	; (8001ee4 <getTubeDeadTime+0x14>)
 8001ed4:	6898      	ldr	r0, [r3, #8]
 8001ed6:	f002 fae1 	bl	800449c <__aeabi_ui2f>
 8001eda:	4b03      	ldr	r3, [pc, #12]	; (8001ee8 <getTubeDeadTime+0x18>)
 8001edc:	6819      	ldr	r1, [r3, #0]
 8001ede:	f002 fad9 	bl	8004494 <__aeabi_fmul>
 8001ee2:	bd08      	pop	{r3, pc}
 8001ee4:	200000ec 	andcs	r0, r0, ip, ror #1
 8001ee8:	2000006c 	andcs	r0, r0, ip, rrx

08001eec <triggerDisplay>:
 8001eec:	b508      	push	{r3, lr}
 8001eee:	f7ff ffb9 	bl	8001e64 <syncTimerThread>
 8001ef2:	2200      	movs	r2, #0
 8001ef4:	4b06      	ldr	r3, [pc, #24]	; (8001f10 <triggerDisplay+0x24>)
 8001ef6:	60da      	str	r2, [r3, #12]
 8001ef8:	4b06      	ldr	r3, [pc, #24]	; (8001f14 <triggerDisplay+0x28>)
 8001efa:	4a07      	ldr	r2, [pc, #28]	; (8001f18 <triggerDisplay+0x2c>)
 8001efc:	88db      	ldrh	r3, [r3, #6]
 8001efe:	f3c3 1382 	ubfx	r3, r3, #6, #3
 8001f02:	f852 0023 	ldr.w	r0, [r2, r3, lsl #2]
 8001f06:	e8bd 4008 	ldmia.w	sp!, {r3, lr}
 8001f0a:	f7ff bf17 	b.w	8001d3c <setDisplayTimer>
 8001f0e:	bf00      	nop
 8001f10:	200000ec 	andcs	r0, r0, ip, ror #1
 8001f14:	20000da0 	andcs	r0, r0, r0, lsr #27
 8001f18:	08006f10 	stmdaeq	r0, {r4, r8, r9, sl, fp, sp, lr}

08001f1c <isDisplayTimerActive>:
 8001f1c:	4b02      	ldr	r3, [pc, #8]	; (8001f28 <isDisplayTimerActive+0xc>)
 8001f1e:	68d8      	ldr	r0, [r3, #12]
 8001f20:	3000      	adds	r0, #0
 8001f22:	bf18      	it	ne
 8001f24:	2001      	movne	r0, #1
 8001f26:	4770      	bx	lr
 8001f28:	200000ec 	andcs	r0, r0, ip, ror #1

08001f2c <triggerPulse>:
 8001f2c:	b538      	push	{r3, r4, r5, lr}
 8001f2e:	4c0e      	ldr	r4, [pc, #56]	; (8001f68 <triggerPulse+0x3c>)
 8001f30:	69a3      	ldr	r3, [r4, #24]
 8001f32:	b9bb      	cbnz	r3, 8001f64 <triggerPulse+0x38>
 8001f34:	4d0d      	ldr	r5, [pc, #52]	; (8001f6c <triggerPulse+0x40>)
 8001f36:	88ea      	ldrh	r2, [r5, #6]
 8001f38:	f402 72e0 	and.w	r2, r2, #448	; 0x1c0
 8001f3c:	f5b2 7fa0 	cmp.w	r2, #320	; 0x140
 8001f40:	d102      	bne.n	8001f48 <triggerPulse+0x1c>
 8001f42:	2032      	movs	r0, #50	; 0x32
 8001f44:	f7ff fefa 	bl	8001d3c <setDisplayTimer>
 8001f48:	686b      	ldr	r3, [r5, #4]
 8001f4a:	4a09      	ldr	r2, [pc, #36]	; (8001f70 <triggerPulse+0x44>)
 8001f4c:	f3c3 33c1 	ubfx	r3, r3, #15, #2
 8001f50:	f852 3023 	ldr.w	r3, [r2, r3, lsl #2]
 8001f54:	6922      	ldr	r2, [r4, #16]
 8001f56:	6921      	ldr	r1, [r4, #16]
 8001f58:	3301      	adds	r3, #1
 8001f5a:	428b      	cmp	r3, r1
 8001f5c:	bfc2      	ittt	gt
 8001f5e:	3201      	addgt	r2, #1
 8001f60:	6123      	strgt	r3, [r4, #16]
 8001f62:	6162      	strgt	r2, [r4, #20]
 8001f64:	bd38      	pop	{r3, r4, r5, pc}
 8001f66:	bf00      	nop
 8001f68:	200000ec 	andcs	r0, r0, ip, ror #1
 8001f6c:	20000da0 	andcs	r0, r0, r0, lsr #27
 8001f70:	08006f04 	stmdaeq	r0, {r2, r8, r9, sl, fp, sp, lr}

08001f74 <triggerAlarm>:
 8001f74:	b510      	push	{r4, lr}
 8001f76:	4c09      	ldr	r4, [pc, #36]	; (8001f9c <triggerAlarm+0x28>)
 8001f78:	f7ff ff74 	bl	8001e64 <syncTimerThread>
 8001f7c:	6923      	ldr	r3, [r4, #16]
 8001f7e:	2064      	movs	r0, #100	; 0x64
 8001f80:	2b63      	cmp	r3, #99	; 0x63
 8001f82:	bfdf      	itttt	le
 8001f84:	2364      	movle	r3, #100	; 0x64
 8001f86:	6123      	strle	r3, [r4, #16]
 8001f88:	2301      	movle	r3, #1
 8001f8a:	6163      	strle	r3, [r4, #20]
 8001f8c:	f7ff fed6 	bl	8001d3c <setDisplayTimer>
 8001f90:	2001      	movs	r0, #1
 8001f92:	f002 fee7 	bl	8004d64 <setVibrator>
 8001f96:	2364      	movs	r3, #100	; 0x64
 8001f98:	61a3      	str	r3, [r4, #24]
 8001f9a:	bd10      	pop	{r4, pc}
 8001f9c:	200000ec 	andcs	r0, r0, ip, ror #1

08001fa0 <isFlashPageFull>:
 8001fa0:	b537      	push	{r0, r1, r2, r4, r5, lr}
 8001fa2:	4b09      	ldr	r3, [pc, #36]	; (8001fc8 <isFlashPageFull+0x28>)
 8001fa4:	6885      	ldr	r5, [r0, #8]
 8001fa6:	681b      	ldr	r3, [r3, #0]
 8001fa8:	2201      	movs	r2, #1
 8001faa:	6083      	str	r3, [r0, #8]
 8001fac:	f10d 0107 	add.w	r1, sp, #7
 8001fb0:	4604      	mov	r4, r0
 8001fb2:	f002 fc23 	bl	80047fc <readFlash>
 8001fb6:	f89d 0007 	ldrb.w	r0, [sp, #7]
 8001fba:	60a5      	str	r5, [r4, #8]
 8001fbc:	38ff      	subs	r0, #255	; 0xff
 8001fbe:	bf18      	it	ne
 8001fc0:	2001      	movne	r0, #1
 8001fc2:	b003      	add	sp, #12
 8001fc4:	bd30      	pop	{r4, r5, pc}
 8001fc6:	bf00      	nop
 8001fc8:	08007598 	stmdaeq	r0, {r3, r4, r7, r8, sl, ip, sp, lr}

08001fcc <setFlashPageHead>:
 8001fcc:	2300      	movs	r3, #0
 8001fce:	b510      	push	{r4, lr}
 8001fd0:	4604      	mov	r4, r0
 8001fd2:	6083      	str	r3, [r0, #8]
 8001fd4:	6803      	ldr	r3, [r0, #0]
 8001fd6:	781b      	ldrb	r3, [r3, #0]
 8001fd8:	7123      	strb	r3, [r4, #4]
 8001fda:	6823      	ldr	r3, [r4, #0]
 8001fdc:	7921      	ldrb	r1, [r4, #4]
 8001fde:	785a      	ldrb	r2, [r3, #1]
 8001fe0:	4291      	cmp	r1, r2
 8001fe2:	d302      	bcc.n	8001fea <setFlashPageHead+0x1e>
 8001fe4:	781b      	ldrb	r3, [r3, #0]
 8001fe6:	7123      	strb	r3, [r4, #4]
 8001fe8:	bd10      	pop	{r4, pc}
 8001fea:	4620      	mov	r0, r4
 8001fec:	f7ff ffd8 	bl	8001fa0 <isFlashPageFull>
 8001ff0:	2800      	cmp	r0, #0
 8001ff2:	d0f9      	beq.n	8001fe8 <setFlashPageHead+0x1c>
 8001ff4:	7923      	ldrb	r3, [r4, #4]
 8001ff6:	3301      	adds	r3, #1
 8001ff8:	e7ee      	b.n	8001fd8 <setFlashPageHead+0xc>

08001ffa <setFlashPageNext>:
 8001ffa:	2100      	movs	r1, #0
 8001ffc:	7903      	ldrb	r3, [r0, #4]
 8001ffe:	6802      	ldr	r2, [r0, #0]
 8002000:	3301      	adds	r3, #1
 8002002:	b2db      	uxtb	r3, r3
 8002004:	7103      	strb	r3, [r0, #4]
 8002006:	6081      	str	r1, [r0, #8]
 8002008:	7851      	ldrb	r1, [r2, #1]
 800200a:	4299      	cmp	r1, r3
 800200c:	bf9c      	itt	ls
 800200e:	7813      	ldrbls	r3, [r2, #0]
 8002010:	7103      	strbls	r3, [r0, #4]
 8002012:	4770      	bx	lr

08002014 <setFlashPagePrev>:
 8002014:	2100      	movs	r1, #0
 8002016:	7903      	ldrb	r3, [r0, #4]
 8002018:	6802      	ldr	r2, [r0, #0]
 800201a:	3b01      	subs	r3, #1
 800201c:	b2db      	uxtb	r3, r3
 800201e:	7103      	strb	r3, [r0, #4]
 8002020:	6081      	str	r1, [r0, #8]
 8002022:	7811      	ldrb	r1, [r2, #0]
 8002024:	4299      	cmp	r1, r3
 8002026:	bf82      	ittt	hi
 8002028:	7853      	ldrbhi	r3, [r2, #1]
 800202a:	f103 33ff 	addhi.w	r3, r3, #4294967295
 800202e:	7103      	strbhi	r3, [r0, #4]
 8002030:	4770      	bx	lr

08002032 <setFlashPageTail>:
 8002032:	b570      	push	{r4, r5, r6, lr}
 8002034:	4604      	mov	r4, r0
 8002036:	f7ff ffc9 	bl	8001fcc <setFlashPageHead>
 800203a:	7926      	ldrb	r6, [r4, #4]
 800203c:	4635      	mov	r5, r6
 800203e:	4620      	mov	r0, r4
 8002040:	f7ff ffe8 	bl	8002014 <setFlashPagePrev>
 8002044:	7923      	ldrb	r3, [r4, #4]
 8002046:	42b3      	cmp	r3, r6
 8002048:	d004      	beq.n	8002054 <setFlashPageTail+0x22>
 800204a:	f7ff ffa9 	bl	8001fa0 <isFlashPageFull>
 800204e:	b108      	cbz	r0, 8002054 <setFlashPageTail+0x22>
 8002050:	7925      	ldrb	r5, [r4, #4]
 8002052:	e7f4      	b.n	800203e <setFlashPageTail+0xc>
 8002054:	7125      	strb	r5, [r4, #4]
 8002056:	bd70      	pop	{r4, r5, r6, pc}

08002058 <writeFlashPage>:
 8002058:	4b18      	ldr	r3, [pc, #96]	; (80020bc <writeFlashPage+0x64>)
 800205a:	e92d 41f0 	stmdb	sp!, {r4, r5, r6, r7, r8, lr}
 800205e:	681f      	ldr	r7, [r3, #0]
 8002060:	6883      	ldr	r3, [r0, #8]
 8002062:	b086      	sub	sp, #24
 8002064:	4413      	add	r3, r2
 8002066:	42bb      	cmp	r3, r7
 8002068:	4604      	mov	r4, r0
 800206a:	4688      	mov	r8, r1
 800206c:	4616      	mov	r6, r2
 800206e:	d91c      	bls.n	80020aa <writeFlashPage+0x52>
 8002070:	c807      	ldmia	r0, {r0, r1, r2}
 8002072:	ad03      	add	r5, sp, #12
 8002074:	e885 0007 	stmia.w	r5, {r0, r1, r2}
 8002078:	4620      	mov	r0, r4
 800207a:	f7ff ffbe 	bl	8001ffa <setFlashPageNext>
 800207e:	7922      	ldrb	r2, [r4, #4]
 8002080:	f89d 3010 	ldrb.w	r3, [sp, #16]
 8002084:	429a      	cmp	r2, r3
 8002086:	d00d      	beq.n	80020a4 <writeFlashPage+0x4c>
 8002088:	2300      	movs	r3, #0
 800208a:	e9cd 3301 	strd	r3, r3, [sp, #4]
 800208e:	4b0c      	ldr	r3, [pc, #48]	; (80020c0 <writeFlashPage+0x68>)
 8002090:	4628      	mov	r0, r5
 8002092:	681a      	ldr	r2, [r3, #0]
 8002094:	a901      	add	r1, sp, #4
 8002096:	9705      	str	r7, [sp, #20]
 8002098:	f002 fbe6 	bl	8004868 <writeFlash>
 800209c:	4620      	mov	r0, r4
 800209e:	f7ff ff7f 	bl	8001fa0 <isFlashPageFull>
 80020a2:	b110      	cbz	r0, 80020aa <writeFlashPage+0x52>
 80020a4:	4620      	mov	r0, r4
 80020a6:	f002 fbb9 	bl	800481c <eraseFlash>
 80020aa:	4632      	mov	r2, r6
 80020ac:	4641      	mov	r1, r8
 80020ae:	4620      	mov	r0, r4
 80020b0:	f002 fbda 	bl	8004868 <writeFlash>
 80020b4:	b006      	add	sp, #24
 80020b6:	e8bd 81f0 	ldmia.w	sp!, {r4, r5, r6, r7, r8, pc}
 80020ba:	bf00      	nop
 80020bc:	08007598 	stmdaeq	r0, {r3, r4, r7, r8, sl, ip, sp, lr}
 80020c0:	08007594 	stmdaeq	r0, {r2, r4, r7, r8, sl, ip, sp, lr}

080020c4 <recordGameMove>:
 80020c4:	4b16      	ldr	r3, [pc, #88]	; (8002120 <recordGameMove+0x5c>)
 80020c6:	b082      	sub	sp, #8
 80020c8:	685a      	ldr	r2, [r3, #4]
 80020ca:	f8ad 0004 	strh.w	r0, [sp, #4]
 80020ce:	2a05      	cmp	r2, #5
 80020d0:	d807      	bhi.n	80020e2 <recordGameMove+0x1e>
 80020d2:	eb03 0142 	add.w	r1, r3, r2, lsl #1
 80020d6:	f8a1 01c6 	strh.w	r0, [r1, #454]	; 0x1c6
 80020da:	3201      	adds	r2, #1
 80020dc:	605a      	str	r2, [r3, #4]
 80020de:	b002      	add	sp, #8
 80020e0:	4770      	bx	lr
 80020e2:	f012 0101 	ands.w	r1, r2, #1
 80020e6:	d113      	bne.n	8002110 <recordGameMove+0x4c>
 80020e8:	f8b3 01ca 	ldrh.w	r0, [r3, #458]	; 0x1ca
 80020ec:	f8a3 01c6 	strh.w	r0, [r3, #454]	; 0x1c6
 80020f0:	f8b3 01cc 	ldrh.w	r0, [r3, #460]	; 0x1cc
 80020f4:	f8a3 01c8 	strh.w	r0, [r3, #456]	; 0x1c8
 80020f8:	f8b3 01ce 	ldrh.w	r0, [r3, #462]	; 0x1ce
 80020fc:	f8a3 01ca 	strh.w	r0, [r3, #458]	; 0x1ca
 8002100:	f8b3 01d0 	ldrh.w	r0, [r3, #464]	; 0x1d0
 8002104:	f8a3 01cc 	strh.w	r0, [r3, #460]	; 0x1cc
 8002108:	f248 0080 	movw	r0, #32896	; 0x8080
 800210c:	f8a3 01d0 	strh.w	r0, [r3, #464]	; 0x1d0
 8002110:	31e4      	adds	r1, #228	; 0xe4
 8002112:	f8bd 0004 	ldrh.w	r0, [sp, #4]
 8002116:	eb03 0141 	add.w	r1, r3, r1, lsl #1
 800211a:	80c8      	strh	r0, [r1, #6]
 800211c:	e7dd      	b.n	80020da <recordGameMove+0x16>
 800211e:	bf00      	nop
 8002120:	2000011c 	andcs	r0, r0, ip, lsl r1

08002124 <onGameMenuGetOption>:
 8002124:	2302      	movs	r3, #2
 8002126:	6013      	str	r3, [r2, #0]
 8002128:	4b04      	ldr	r3, [pc, #16]	; (800213c <onGameMenuGetOption+0x18>)
 800212a:	685b      	ldr	r3, [r3, #4]
 800212c:	b91b      	cbnz	r3, 8002136 <onGameMenuGetOption+0x12>
 800212e:	4b04      	ldr	r3, [pc, #16]	; (8002140 <onGameMenuGetOption+0x1c>)
 8002130:	f853 0021 	ldr.w	r0, [r3, r1, lsl #2]
 8002134:	4770      	bx	lr
 8002136:	4b03      	ldr	r3, [pc, #12]	; (8002144 <onGameMenuGetOption+0x20>)
 8002138:	e7fa      	b.n	8002130 <onGameMenuGetOption+0xc>
 800213a:	bf00      	nop
 800213c:	2000011c 	andcs	r0, r0, ip, lsl r1
 8002140:	08006f58 	stmdaeq	r0, {r3, r4, r6, r8, r9, sl, fp, sp, lr}
 8002144:	08006f2c 	stmdaeq	r0, {r2, r3, r5, r8, r9, sl, fp, sp, lr}

08002148 <onGameStrengthMenuSelect>:
 8002148:	4b03      	ldr	r3, [pc, #12]	; (8002158 <onGameStrengthMenuSelect+0x10>)
 800214a:	6841      	ldr	r1, [r0, #4]
 800214c:	7a1a      	ldrb	r2, [r3, #8]
 800214e:	8849      	ldrh	r1, [r1, #2]
 8002150:	f361 0202 	bfi	r2, r1, #0, #3
 8002154:	721a      	strb	r2, [r3, #8]
 8002156:	4770      	bx	lr
 8002158:	20000da0 	andcs	r0, r0, r0, lsr #27

0800215c <onGameStrengthMenuBack>:
 800215c:	4801      	ldr	r0, [pc, #4]	; (8002164 <onGameStrengthMenuBack+0x8>)
 800215e:	f003 b893 	b.w	8005288 <setView>
 8002162:	bf00      	nop
 8002164:	08006f50 	stmdaeq	r0, {r4, r6, r8, r9, sl, fp, sp, lr}

08002168 <onGameStrengthMenuGetOption>:
 8002168:	b510      	push	{r4, lr}
 800216a:	460c      	mov	r4, r1
 800216c:	4b0b      	ldr	r3, [pc, #44]	; (800219c <onGameStrengthMenuGetOption+0x34>)
 800216e:	7a1b      	ldrb	r3, [r3, #8]
 8002170:	f003 0307 	and.w	r3, r3, #7
 8002174:	1a59      	subs	r1, r3, r1
 8002176:	424b      	negs	r3, r1
 8002178:	414b      	adcs	r3, r1
 800217a:	2c07      	cmp	r4, #7
 800217c:	6013      	str	r3, [r2, #0]
 800217e:	d80a      	bhi.n	8002196 <onGameStrengthMenuGetOption+0x2e>
 8002180:	4907      	ldr	r1, [pc, #28]	; (80021a0 <onGameStrengthMenuGetOption+0x38>)
 8002182:	4808      	ldr	r0, [pc, #32]	; (80021a4 <onGameStrengthMenuGetOption+0x3c>)
 8002184:	f003 ff6a 	bl	800605c <strcpy>
 8002188:	4806      	ldr	r0, [pc, #24]	; (80021a4 <onGameStrengthMenuGetOption+0x3c>)
 800218a:	2200      	movs	r2, #0
 800218c:	1c61      	adds	r1, r4, #1
 800218e:	f7fe fc8d 	bl	8000aac <strcatUInt32>
 8002192:	4804      	ldr	r0, [pc, #16]	; (80021a4 <onGameStrengthMenuGetOption+0x3c>)
 8002194:	bd10      	pop	{r4, pc}
 8002196:	2000      	movs	r0, #0
 8002198:	e7fc      	b.n	8002194 <onGameStrengthMenuGetOption+0x2c>
 800219a:	bf00      	nop
 800219c:	20000da0 	andcs	r0, r0, r0, lsr #27
 80021a0:	08006e58 	stmdaeq	r0, {r3, r4, r6, r9, sl, fp, sp, lr}
 80021a4:	20000d7c 	andcs	r0, r0, ip, ror sp

080021a8 <onGameCallback>:
 80021a8:	f7ff be76 	b.w	8001e98 <dispatchEvents>

080021ac <updateValidMoves>:
 80021ac:	b510      	push	{r4, lr}
 80021ae:	4c06      	ldr	r4, [pc, #24]	; (80021c8 <updateValidMoves+0x1c>)
 80021b0:	21b5      	movs	r1, #181	; 0xb5
 80021b2:	f104 005c 	add.w	r0, r4, #92	; 0x5c
 80021b6:	f003 feaf 	bl	8005f18 <mcumax_search_valid_moves>
 80021ba:	68a3      	ldr	r3, [r4, #8]
 80021bc:	6560      	str	r0, [r4, #84]	; 0x54
 80021be:	b103      	cbz	r3, 80021c2 <updateValidMoves+0x16>
 80021c0:	1e43      	subs	r3, r0, #1
 80021c2:	65a3      	str	r3, [r4, #88]	; 0x58
 80021c4:	bd10      	pop	{r4, pc}
 80021c6:	bf00      	nop
 80021c8:	2000011c 	andcs	r0, r0, ip, lsl r1

080021cc <updateGameBoard>:
 80021cc:	e92d 4ff0 	stmdb	sp!, {r4, r5, r6, r7, r8, r9, sl, fp, lr}
 80021d0:	4c33      	ldr	r4, [pc, #204]	; (80022a0 <updateGameBoard+0xd4>)
 80021d2:	b085      	sub	sp, #20
 80021d4:	7823      	ldrb	r3, [r4, #0]
 80021d6:	2b01      	cmp	r3, #1
 80021d8:	d050      	beq.n	800227c <updateGameBoard+0xb0>
 80021da:	d304      	bcc.n	80021e6 <updateGameBoard+0x1a>
 80021dc:	2b02      	cmp	r3, #2
 80021de:	d054      	beq.n	800228a <updateGameBoard+0xbe>
 80021e0:	2580      	movs	r5, #128	; 0x80
 80021e2:	46a8      	mov	r8, r5
 80021e4:	e00d      	b.n	8002202 <updateGameBoard+0x36>
 80021e6:	2580      	movs	r5, #128	; 0x80
 80021e8:	2300      	movs	r3, #0
 80021ea:	46a8      	mov	r8, r5
 80021ec:	18e1      	adds	r1, r4, r3
 80021ee:	f891 21c6 	ldrb.w	r2, [r1, #454]	; 0x1c6
 80021f2:	3302      	adds	r3, #2
 80021f4:	2a80      	cmp	r2, #128	; 0x80
 80021f6:	bf1c      	itt	ne
 80021f8:	f891 51c7 	ldrbne.w	r5, [r1, #455]	; 0x1c7
 80021fc:	4690      	movne	r8, r2
 80021fe:	2b0c      	cmp	r3, #12
 8002200:	d1f4      	bne.n	80021ec <updateGameBoard+0x20>
 8002202:	2307      	movs	r3, #7
 8002204:	f04f 0b00 	mov.w	fp, #0
 8002208:	f04f 0a00 	mov.w	sl, #0
 800220c:	fa5f f18b 	uxtb.w	r1, fp
 8002210:	010a      	lsls	r2, r1, #4
 8002212:	b2d8      	uxtb	r0, r3
 8002214:	b2d2      	uxtb	r2, r2
 8002216:	9000      	str	r0, [sp, #0]
 8002218:	fa5f f78a 	uxtb.w	r7, sl
 800221c:	68a0      	ldr	r0, [r4, #8]
 800221e:	eb07 0902 	add.w	r9, r7, r2
 8002222:	fa5f f989 	uxtb.w	r9, r9
 8002226:	2800      	cmp	r0, #0
 8002228:	d037      	beq.n	800229a <updateGameBoard+0xce>
 800222a:	f1c7 0707 	rsb	r7, r7, #7
 800222e:	9e00      	ldr	r6, [sp, #0]
 8002230:	b2ff      	uxtb	r7, r7
 8002232:	4648      	mov	r0, r9
 8002234:	e9cd 3202 	strd	r3, r2, [sp, #8]
 8002238:	9101      	str	r1, [sp, #4]
 800223a:	f003 fe5f 	bl	8005efc <mcumax_get_piece>
 800223e:	e9dd 1301 	ldrd	r1, r3, [sp, #4]
 8002242:	45c8      	cmp	r8, r9
 8002244:	9a03      	ldr	r2, [sp, #12]
 8002246:	d001      	beq.n	800224c <updateGameBoard+0x80>
 8002248:	454d      	cmp	r5, r9
 800224a:	d102      	bne.n	8002252 <updateGameBoard+0x86>
 800224c:	f040 0010 	orr.w	r0, r0, #16
 8002250:	b2c0      	uxtb	r0, r0
 8002252:	eb04 06c6 	add.w	r6, r4, r6, lsl #3
 8002256:	f10a 0a01 	add.w	sl, sl, #1
 800225a:	4437      	add	r7, r6
 800225c:	f1ba 0f08 	cmp.w	sl, #8
 8002260:	7538      	strb	r0, [r7, #20]
 8002262:	d1d9      	bne.n	8002218 <updateGameBoard+0x4c>
 8002264:	f10b 0b01 	add.w	fp, fp, #1
 8002268:	f1bb 0f08 	cmp.w	fp, #8
 800226c:	f103 33ff 	add.w	r3, r3, #4294967295
 8002270:	d1ca      	bne.n	8002208 <updateGameBoard+0x3c>
 8002272:	b005      	add	sp, #20
 8002274:	e8bd 4ff0 	ldmia.w	sp!, {r4, r5, r6, r7, r8, r9, sl, fp, lr}
 8002278:	f003 b80e 	b.w	8005298 <updateView>
 800227c:	6da3      	ldr	r3, [r4, #88]	; 0x58
 800227e:	2580      	movs	r5, #128	; 0x80
 8002280:	eb04 0343 	add.w	r3, r4, r3, lsl #1
 8002284:	f893 805c 	ldrb.w	r8, [r3, #92]	; 0x5c
 8002288:	e7bb      	b.n	8002202 <updateGameBoard+0x36>
 800228a:	6da3      	ldr	r3, [r4, #88]	; 0x58
 800228c:	332e      	adds	r3, #46	; 0x2e
 800228e:	eb04 0243 	add.w	r2, r4, r3, lsl #1
 8002292:	f814 8013 	ldrb.w	r8, [r4, r3, lsl #1]
 8002296:	7855      	ldrb	r5, [r2, #1]
 8002298:	e7b3      	b.n	8002202 <updateGameBoard+0x36>
 800229a:	460e      	mov	r6, r1
 800229c:	e7c9      	b.n	8002232 <updateGameBoard+0x66>
 800229e:	bf00      	nop
 80022a0:	2000011c 	andcs	r0, r0, ip, lsl r1

080022a4 <resetGame>:
 80022a4:	b510      	push	{r4, lr}
 80022a6:	4604      	mov	r4, r0
 80022a8:	f003 fde2 	bl	8005e70 <mcumax_init>
 80022ac:	2200      	movs	r2, #0
 80022ae:	4b0c      	ldr	r3, [pc, #48]	; (80022e0 <resetGame+0x3c>)
 80022b0:	490c      	ldr	r1, [pc, #48]	; (80022e4 <resetGame+0x40>)
 80022b2:	e9c3 2401 	strd	r2, r4, [r3, #4]
 80022b6:	e9c3 2203 	strd	r2, r2, [r3, #12]
 80022ba:	8808      	ldrh	r0, [r1, #0]
 80022bc:	1899      	adds	r1, r3, r2
 80022be:	3202      	adds	r2, #2
 80022c0:	2a0c      	cmp	r2, #12
 80022c2:	f8a1 01c6 	strh.w	r0, [r1, #454]	; 0x1c6
 80022c6:	d1f9      	bne.n	80022bc <resetGame+0x18>
 80022c8:	b93c      	cbnz	r4, 80022da <resetGame+0x36>
 80022ca:	2201      	movs	r2, #1
 80022cc:	701a      	strb	r2, [r3, #0]
 80022ce:	f7ff ff6d 	bl	80021ac <updateValidMoves>
 80022d2:	e8bd 4010 	ldmia.w	sp!, {r4, lr}
 80022d6:	f7ff bf79 	b.w	80021cc <updateGameBoard>
 80022da:	2203      	movs	r2, #3
 80022dc:	701a      	strb	r2, [r3, #0]
 80022de:	e7f8      	b.n	80022d2 <resetGame+0x2e>
 80022e0:	2000011c 	andcs	r0, r0, ip, lsl r1
 80022e4:	08006154 	stmdaeq	r0, {r2, r4, r6, r8, sp, lr}

080022e8 <stepValidMove>:
 80022e8:	4b08      	ldr	r3, [pc, #32]	; (800230c <stepValidMove+0x24>)
 80022ea:	6d9a      	ldr	r2, [r3, #88]	; 0x58
 80022ec:	4410      	add	r0, r2
 80022ee:	2800      	cmp	r0, #0
 80022f0:	6598      	str	r0, [r3, #88]	; 0x58
 80022f2:	6d5a      	ldr	r2, [r3, #84]	; 0x54
 80022f4:	da03      	bge.n	80022fe <stepValidMove+0x16>
 80022f6:	3a01      	subs	r2, #1
 80022f8:	659a      	str	r2, [r3, #88]	; 0x58
 80022fa:	2001      	movs	r0, #1
 80022fc:	4770      	bx	lr
 80022fe:	4290      	cmp	r0, r2
 8002300:	f04f 0000 	mov.w	r0, #0
 8002304:	dbfa      	blt.n	80022fc <stepValidMove+0x14>
 8002306:	6598      	str	r0, [r3, #88]	; 0x58
 8002308:	e7f7      	b.n	80022fa <stepValidMove+0x12>
 800230a:	bf00      	nop
 800230c:	2000011c 	andcs	r0, r0, ip, lsl r1

08002310 <stepValidMoveFrom>:
 8002310:	b538      	push	{r3, r4, r5, lr}
 8002312:	4605      	mov	r5, r0
 8002314:	4908      	ldr	r1, [pc, #32]	; (8002338 <stepValidMoveFrom+0x28>)
 8002316:	6d8a      	ldr	r2, [r1, #88]	; 0x58
 8002318:	eb01 0242 	add.w	r2, r1, r2, lsl #1
 800231c:	f892 405c 	ldrb.w	r4, [r2, #92]	; 0x5c
 8002320:	4628      	mov	r0, r5
 8002322:	f7ff ffe1 	bl	80022e8 <stepValidMove>
 8002326:	b930      	cbnz	r0, 8002336 <stepValidMoveFrom+0x26>
 8002328:	6d8b      	ldr	r3, [r1, #88]	; 0x58
 800232a:	eb01 0343 	add.w	r3, r1, r3, lsl #1
 800232e:	f893 305c 	ldrb.w	r3, [r3, #92]	; 0x5c
 8002332:	42a3      	cmp	r3, r4
 8002334:	d0f4      	beq.n	8002320 <stepValidMoveFrom+0x10>
 8002336:	bd38      	pop	{r3, r4, r5, pc}
 8002338:	2000011c 	andcs	r0, r0, ip, lsl r1

0800233c <onGameViewEvent>:
 800233c:	e92d 47f0 	stmdb	sp!, {r4, r5, r6, r7, r8, r9, sl, lr}
 8002340:	b092      	sub	sp, #72	; 0x48
 8002342:	2906      	cmp	r1, #6
 8002344:	d80d      	bhi.n	8002362 <onGameViewEvent+0x26>
 8002346:	e8df f001 	tbb	[pc, r1]
 800234a:	40401d04 	submi	r1, r0, r4, lsl #26
 800234e:	006d0c0c 	rsbeq	r0, sp, ip, lsl #24
 8002352:	4c60      	ldr	r4, [pc, #384]	; (80024d4 <onGameViewEvent+0x198>)
 8002354:	7823      	ldrb	r3, [r4, #0]
 8002356:	2b03      	cmp	r3, #3
 8002358:	d106      	bne.n	8002368 <onGameViewEvent+0x2c>
 800235a:	f003 fe31 	bl	8005fc0 <mcumax_stop_search>
 800235e:	2304      	movs	r3, #4
 8002360:	7023      	strb	r3, [r4, #0]
 8002362:	b012      	add	sp, #72	; 0x48
 8002364:	e8bd 87f0 	ldmia.w	sp!, {r4, r5, r6, r7, r8, r9, sl, pc}
 8002368:	2b02      	cmp	r3, #2
 800236a:	d105      	bne.n	8002378 <onGameViewEvent+0x3c>
 800236c:	2201      	movs	r2, #1
 800236e:	4b59      	ldr	r3, [pc, #356]	; (80024d4 <onGameViewEvent+0x198>)
 8002370:	701a      	strb	r2, [r3, #0]
 8002372:	f7ff ff2b 	bl	80021cc <updateGameBoard>
 8002376:	e7f4      	b.n	8002362 <onGameViewEvent+0x26>
 8002378:	2b04      	cmp	r3, #4
 800237a:	d0f2      	beq.n	8002362 <onGameViewEvent+0x26>
 800237c:	4856      	ldr	r0, [pc, #344]	; (80024d8 <onGameViewEvent+0x19c>)
 800237e:	f002 ff83 	bl	8005288 <setView>
 8002382:	e7ee      	b.n	8002362 <onGameViewEvent+0x26>
 8002384:	4c53      	ldr	r4, [pc, #332]	; (80024d4 <onGameViewEvent+0x198>)
 8002386:	7825      	ldrb	r5, [r4, #0]
 8002388:	2d01      	cmp	r5, #1
 800238a:	d011      	beq.n	80023b0 <onGameViewEvent+0x74>
 800238c:	2d02      	cmp	r5, #2
 800238e:	d1e8      	bne.n	8002362 <onGameViewEvent+0x26>
 8002390:	6da3      	ldr	r3, [r4, #88]	; 0x58
 8002392:	eb04 0343 	add.w	r3, r4, r3, lsl #1
 8002396:	f8b3 305c 	ldrh.w	r3, [r3, #92]	; 0x5c
 800239a:	f8ad 3024 	strh.w	r3, [sp, #36]	; 0x24
 800239e:	9809      	ldr	r0, [sp, #36]	; 0x24
 80023a0:	f003 fdf8 	bl	8005f94 <mcumax_play_move>
 80023a4:	9809      	ldr	r0, [sp, #36]	; 0x24
 80023a6:	f7ff fe8d 	bl	80020c4 <recordGameMove>
 80023aa:	2303      	movs	r3, #3
 80023ac:	7023      	strb	r3, [r4, #0]
 80023ae:	e7e0      	b.n	8002372 <onGameViewEvent+0x36>
 80023b0:	6d63      	ldr	r3, [r4, #84]	; 0x54
 80023b2:	2b00      	cmp	r3, #0
 80023b4:	d0d5      	beq.n	8002362 <onGameViewEvent+0x26>
 80023b6:	2302      	movs	r3, #2
 80023b8:	f04f 30ff 	mov.w	r0, #4294967295
 80023bc:	7023      	strb	r3, [r4, #0]
 80023be:	f7ff ffa7 	bl	8002310 <stepValidMoveFrom>
 80023c2:	4628      	mov	r0, r5
 80023c4:	f7ff ff90 	bl	80022e8 <stepValidMove>
 80023c8:	e7d3      	b.n	8002372 <onGameViewEvent+0x36>
 80023ca:	4c42      	ldr	r4, [pc, #264]	; (80024d4 <onGameViewEvent+0x198>)
 80023cc:	7823      	ldrb	r3, [r4, #0]
 80023ce:	2b00      	cmp	r3, #0
 80023d0:	d0cc      	beq.n	800236c <onGameViewEvent+0x30>
 80023d2:	2b01      	cmp	r3, #1
 80023d4:	d10a      	bne.n	80023ec <onGameViewEvent+0xb0>
 80023d6:	68a3      	ldr	r3, [r4, #8]
 80023d8:	2902      	cmp	r1, #2
 80023da:	bf0c      	ite	eq
 80023dc:	f04f 30ff 	moveq.w	r0, #4294967295
 80023e0:	2001      	movne	r0, #1
 80023e2:	b103      	cbz	r3, 80023e6 <onGameViewEvent+0xaa>
 80023e4:	4240      	negs	r0, r0
 80023e6:	f7ff ff93 	bl	8002310 <stepValidMoveFrom>
 80023ea:	e7c2      	b.n	8002372 <onGameViewEvent+0x36>
 80023ec:	2b02      	cmp	r3, #2
 80023ee:	d1b8      	bne.n	8002362 <onGameViewEvent+0x26>
 80023f0:	2902      	cmp	r1, #2
 80023f2:	bf0c      	ite	eq
 80023f4:	f04f 35ff 	moveq.w	r5, #4294967295
 80023f8:	2501      	movne	r5, #1
 80023fa:	6da3      	ldr	r3, [r4, #88]	; 0x58
 80023fc:	4628      	mov	r0, r5
 80023fe:	eb04 0343 	add.w	r3, r4, r3, lsl #1
 8002402:	f893 105c 	ldrb.w	r1, [r3, #92]	; 0x5c
 8002406:	f7ff ff6f 	bl	80022e8 <stepValidMove>
 800240a:	6da3      	ldr	r3, [r4, #88]	; 0x58
 800240c:	eb04 0443 	add.w	r4, r4, r3, lsl #1
 8002410:	f894 305c 	ldrb.w	r3, [r4, #92]	; 0x5c
 8002414:	428b      	cmp	r3, r1
 8002416:	d0ac      	beq.n	8002372 <onGameViewEvent+0x36>
 8002418:	4269      	negs	r1, r5
 800241a:	4608      	mov	r0, r1
 800241c:	f7ff ff64 	bl	80022e8 <stepValidMove>
 8002420:	4608      	mov	r0, r1
 8002422:	e7cc      	b.n	80023be <onGameViewEvent+0x82>
 8002424:	4c2b      	ldr	r4, [pc, #172]	; (80024d4 <onGameViewEvent+0x198>)
 8002426:	492d      	ldr	r1, [pc, #180]	; (80024dc <onGameViewEvent+0x1a0>)
 8002428:	a801      	add	r0, sp, #4
 800242a:	f003 fe17 	bl	800605c <strcpy>
 800242e:	68a3      	ldr	r3, [r4, #8]
 8002430:	2500      	movs	r5, #0
 8002432:	2b00      	cmp	r3, #0
 8002434:	bf0c      	ite	eq
 8002436:	230c      	moveq	r3, #12
 8002438:	2308      	movne	r3, #8
 800243a:	4423      	add	r3, r4
 800243c:	6859      	ldr	r1, [r3, #4]
 800243e:	a801      	add	r0, sp, #4
 8002440:	f7fe fb6e 	bl	8000b20 <strcatTime>
 8002444:	4925      	ldr	r1, [pc, #148]	; (80024dc <onGameViewEvent+0x1a0>)
 8002446:	a805      	add	r0, sp, #20
 8002448:	f003 fe08 	bl	800605c <strcpy>
 800244c:	68a3      	ldr	r3, [r4, #8]
 800244e:	a805      	add	r0, sp, #20
 8002450:	eb04 0383 	add.w	r3, r4, r3, lsl #2
 8002454:	68d9      	ldr	r1, [r3, #12]
 8002456:	f7fe fb63 	bl	8000b20 <strcatTime>
 800245a:	46aa      	mov	sl, r5
 800245c:	f8df 907c 	ldr.w	r9, [pc, #124]	; 80024dc <onGameViewEvent+0x1a0>
 8002460:	230c      	movs	r3, #12
 8002462:	aa09      	add	r2, sp, #36	; 0x24
 8002464:	eb04 0685 	add.w	r6, r4, r5, lsl #2
 8002468:	fb03 2305 	mla	r3, r3, r5, r2
 800246c:	2700      	movs	r7, #0
 800246e:	f04f 082d 	mov.w	r8, #45	; 0x2d
 8002472:	e000      	b.n	8002476 <onGameViewEvent+0x13a>
 8002474:	2701      	movs	r7, #1
 8002476:	f896 21c6 	ldrb.w	r2, [r6, #454]	; 0x1c6
 800247a:	f896 11c7 	ldrb.w	r1, [r6, #455]	; 0x1c7
 800247e:	2a80      	cmp	r2, #128	; 0x80
 8002480:	d111      	bne.n	80024a6 <onGameViewEvent+0x16a>
 8002482:	4618      	mov	r0, r3
 8002484:	4649      	mov	r1, r9
 8002486:	f003 fde9 	bl	800605c <strcpy>
 800248a:	4603      	mov	r3, r0
 800248c:	3602      	adds	r6, #2
 800248e:	3306      	adds	r3, #6
 8002490:	2f00      	cmp	r7, #0
 8002492:	d0ef      	beq.n	8002474 <onGameViewEvent+0x138>
 8002494:	3501      	adds	r5, #1
 8002496:	2d03      	cmp	r5, #3
 8002498:	d1e2      	bne.n	8002460 <onGameViewEvent+0x124>
 800249a:	aa09      	add	r2, sp, #36	; 0x24
 800249c:	a901      	add	r1, sp, #4
 800249e:	4810      	ldr	r0, [pc, #64]	; (80024e0 <onGameViewEvent+0x1a4>)
 80024a0:	f7ff fb84 	bl	8001bac <drawGame>
 80024a4:	e75d      	b.n	8002362 <onGameViewEvent+0x26>
 80024a6:	f002 0007 	and.w	r0, r2, #7
 80024aa:	f3c2 1202 	ubfx	r2, r2, #4, #3
 80024ae:	f1c2 0238 	rsb	r2, r2, #56	; 0x38
 80024b2:	705a      	strb	r2, [r3, #1]
 80024b4:	f001 0207 	and.w	r2, r1, #7
 80024b8:	f3c1 1102 	ubfx	r1, r1, #4, #3
 80024bc:	3061      	adds	r0, #97	; 0x61
 80024be:	3261      	adds	r2, #97	; 0x61
 80024c0:	f1c1 0138 	rsb	r1, r1, #56	; 0x38
 80024c4:	7018      	strb	r0, [r3, #0]
 80024c6:	f883 8002 	strb.w	r8, [r3, #2]
 80024ca:	70da      	strb	r2, [r3, #3]
 80024cc:	7119      	strb	r1, [r3, #4]
 80024ce:	f883 a005 	strb.w	sl, [r3, #5]
 80024d2:	e7db      	b.n	800248c <onGameViewEvent+0x150>
 80024d4:	2000011c 	andcs	r0, r0, ip, lsl r1
 80024d8:	08006f50 	stmdaeq	r0, {r4, r6, r8, r9, sl, fp, sp, lr}
 80024dc:	080062da 	stmdaeq	r0, {r1, r3, r4, r6, r7, r9, sp, lr}
 80024e0:	20000130 	andcs	r0, r0, r0, lsr r1

080024e4 <onGameMenuSelect>:
 80024e4:	6843      	ldr	r3, [r0, #4]
 80024e6:	b510      	push	{r4, lr}
 80024e8:	885c      	ldrh	r4, [r3, #2]
 80024ea:	2c01      	cmp	r4, #1
 80024ec:	d00d      	beq.n	800250a <onGameMenuSelect+0x26>
 80024ee:	d302      	bcc.n	80024f6 <onGameMenuSelect+0x12>
 80024f0:	2c02      	cmp	r4, #2
 80024f2:	d019      	beq.n	8002528 <onGameMenuSelect+0x44>
 80024f4:	bd10      	pop	{r4, pc}
 80024f6:	4b0d      	ldr	r3, [pc, #52]	; (800252c <onGameMenuSelect+0x48>)
 80024f8:	6858      	ldr	r0, [r3, #4]
 80024fa:	b908      	cbnz	r0, 8002500 <onGameMenuSelect+0x1c>
 80024fc:	f7ff fed2 	bl	80022a4 <resetGame>
 8002500:	480b      	ldr	r0, [pc, #44]	; (8002530 <onGameMenuSelect+0x4c>)
 8002502:	e8bd 4010 	ldmia.w	sp!, {r4, lr}
 8002506:	f002 bebf 	b.w	8005288 <setView>
 800250a:	2203      	movs	r2, #3
 800250c:	2100      	movs	r1, #0
 800250e:	4809      	ldr	r0, [pc, #36]	; (8002534 <onGameMenuSelect+0x50>)
 8002510:	f001 f8ac 	bl	800366c <selectMenuItem>
 8002514:	4b05      	ldr	r3, [pc, #20]	; (800252c <onGameMenuSelect+0x48>)
 8002516:	685b      	ldr	r3, [r3, #4]
 8002518:	b90b      	cbnz	r3, 800251e <onGameMenuSelect+0x3a>
 800251a:	4620      	mov	r0, r4
 800251c:	e7ee      	b.n	80024fc <onGameMenuSelect+0x18>
 800251e:	2000      	movs	r0, #0
 8002520:	f7ff fec0 	bl	80022a4 <resetGame>
 8002524:	4804      	ldr	r0, [pc, #16]	; (8002538 <onGameMenuSelect+0x54>)
 8002526:	e7ec      	b.n	8002502 <onGameMenuSelect+0x1e>
 8002528:	4804      	ldr	r0, [pc, #16]	; (800253c <onGameMenuSelect+0x58>)
 800252a:	e7ea      	b.n	8002502 <onGameMenuSelect+0x1e>
 800252c:	2000011c 	andcs	r0, r0, ip, lsl r1
 8002530:	08006f94 	stmdaeq	r0, {r2, r4, r7, r8, r9, sl, fp, sp, lr}
 8002534:	08006f3c 	stmdaeq	r0, {r2, r3, r4, r5, r8, r9, sl, fp, sp, lr}
 8002538:	08006f50 	stmdaeq	r0, {r4, r6, r8, r9, sl, fp, sp, lr}
 800253c:	08006f7c 	stmdaeq	r0, {r2, r3, r4, r5, r6, r8, r9, sl, fp, sp, lr}

08002540 <initGame>:
 8002540:	4b03      	ldr	r3, [pc, #12]	; (8002550 <initGame+0x10>)
 8002542:	2208      	movs	r2, #8
 8002544:	7a19      	ldrb	r1, [r3, #8]
 8002546:	4803      	ldr	r0, [pc, #12]	; (8002554 <initGame+0x14>)
 8002548:	f001 0107 	and.w	r1, r1, #7
 800254c:	f001 b88e 	b.w	800366c <selectMenuItem>
 8002550:	20000da0 	andcs	r0, r0, r0, lsr #27
 8002554:	08006f68 	stmdaeq	r0, {r3, r5, r6, r8, r9, sl, fp, sp, lr}

08002558 <dispatchGameEvents>:
 8002558:	b573      	push	{r0, r1, r4, r5, r6, lr}
 800255a:	4c1f      	ldr	r4, [pc, #124]	; (80025d8 <dispatchGameEvents+0x80>)
 800255c:	7825      	ldrb	r5, [r4, #0]
 800255e:	4626      	mov	r6, r4
 8002560:	2d03      	cmp	r5, #3
 8002562:	d136      	bne.n	80025d2 <dispatchGameEvents+0x7a>
 8002564:	2100      	movs	r1, #0
 8002566:	481d      	ldr	r0, [pc, #116]	; (80025dc <dispatchGameEvents+0x84>)
 8002568:	f003 fd24 	bl	8005fb4 <mcumax_set_callback>
 800256c:	4b1c      	ldr	r3, [pc, #112]	; (80025e0 <dispatchGameEvents+0x88>)
 800256e:	4a1d      	ldr	r2, [pc, #116]	; (80025e4 <dispatchGameEvents+0x8c>)
 8002570:	7a1b      	ldrb	r3, [r3, #8]
 8002572:	2110      	movs	r1, #16
 8002574:	f003 0307 	and.w	r3, r3, #7
 8002578:	f832 0013 	ldrh.w	r0, [r2, r3, lsl #1]
 800257c:	f003 fce2 	bl	8005f44 <mcumax_search_best_move>
 8002580:	2100      	movs	r1, #0
 8002582:	f8ad 0004 	strh.w	r0, [sp, #4]
 8002586:	4608      	mov	r0, r1
 8002588:	f003 fd14 	bl	8005fb4 <mcumax_set_callback>
 800258c:	7823      	ldrb	r3, [r4, #0]
 800258e:	2b04      	cmp	r3, #4
 8002590:	d106      	bne.n	80025a0 <dispatchGameEvents+0x48>
 8002592:	4815      	ldr	r0, [pc, #84]	; (80025e8 <dispatchGameEvents+0x90>)
 8002594:	7025      	strb	r5, [r4, #0]
 8002596:	b002      	add	sp, #8
 8002598:	e8bd 4070 	ldmia.w	sp!, {r4, r5, r6, lr}
 800259c:	f002 be74 	b.w	8005288 <setView>
 80025a0:	f89d 3004 	ldrb.w	r3, [sp, #4]
 80025a4:	2b80      	cmp	r3, #128	; 0x80
 80025a6:	d106      	bne.n	80025b6 <dispatchGameEvents+0x5e>
 80025a8:	2305      	movs	r3, #5
 80025aa:	7033      	strb	r3, [r6, #0]
 80025ac:	b002      	add	sp, #8
 80025ae:	e8bd 4070 	ldmia.w	sp!, {r4, r5, r6, lr}
 80025b2:	f7ff be0b 	b.w	80021cc <updateGameBoard>
 80025b6:	9801      	ldr	r0, [sp, #4]
 80025b8:	f003 fcec 	bl	8005f94 <mcumax_play_move>
 80025bc:	9801      	ldr	r0, [sp, #4]
 80025be:	f7ff fd81 	bl	80020c4 <recordGameMove>
 80025c2:	f7ff fdf3 	bl	80021ac <updateValidMoves>
 80025c6:	6d63      	ldr	r3, [r4, #84]	; 0x54
 80025c8:	2b00      	cmp	r3, #0
 80025ca:	d0ed      	beq.n	80025a8 <dispatchGameEvents+0x50>
 80025cc:	2300      	movs	r3, #0
 80025ce:	7023      	strb	r3, [r4, #0]
 80025d0:	e7ec      	b.n	80025ac <dispatchGameEvents+0x54>
 80025d2:	b002      	add	sp, #8
 80025d4:	bd70      	pop	{r4, r5, r6, pc}
 80025d6:	bf00      	nop
 80025d8:	2000011c 	andcs	r0, r0, ip, lsl r1
 80025dc:	080021a9 	stmdaeq	r0, {r0, r3, r5, r7, r8, sp}
 80025e0:	20000da0 	andcs	r0, r0, r0, lsr #27
 80025e4:	08006f84 	stmdaeq	r0, {r2, r7, r8, r9, sl, fp, sp, lr}
 80025e8:	08006f50 	stmdaeq	r0, {r4, r6, r8, r9, sl, fp, sp, lr}

080025ec <updateGame>:
 80025ec:	b508      	push	{r3, lr}
 80025ee:	f002 fe59 	bl	80052a4 <getView>
 80025f2:	4b08      	ldr	r3, [pc, #32]	; (8002614 <updateGame+0x28>)
 80025f4:	4283      	cmp	r3, r0
 80025f6:	d10c      	bne.n	8002612 <updateGame+0x26>
 80025f8:	4b07      	ldr	r3, [pc, #28]	; (8002618 <updateGame+0x2c>)
 80025fa:	781a      	ldrb	r2, [r3, #0]
 80025fc:	2a05      	cmp	r2, #5
 80025fe:	d008      	beq.n	8002612 <updateGame+0x26>
 8002600:	685a      	ldr	r2, [r3, #4]
 8002602:	f002 0201 	and.w	r2, r2, #1
 8002606:	3202      	adds	r2, #2
 8002608:	eb03 0382 	add.w	r3, r3, r2, lsl #2
 800260c:	685a      	ldr	r2, [r3, #4]
 800260e:	3201      	adds	r2, #1
 8002610:	605a      	str	r2, [r3, #4]
 8002612:	bd08      	pop	{r3, pc}
 8002614:	08006f94 	stmdaeq	r0, {r2, r4, r7, r8, r9, sl, fp, sp, lr}
 8002618:	2000011c 	andcs	r0, r0, ip, lsl r1

0800261c <initKeyboard>:
 800261c:	b508      	push	{r3, lr}
 800261e:	f001 fd6d 	bl	80040fc <initKeyboardController>
 8002622:	2205      	movs	r2, #5
 8002624:	4b02      	ldr	r3, [pc, #8]	; (8002630 <initKeyboard+0x14>)
 8002626:	719a      	strb	r2, [r3, #6]
 8002628:	2201      	movs	r2, #1
 800262a:	701a      	strb	r2, [r3, #0]
 800262c:	bd08      	pop	{r3, pc}
 800262e:	bf00      	nop
 8002630:	200002f8 	strdcs	r0, [r0], -r8

08002634 <onKeyboardTick>:
 8002634:	e92d 43f7 	stmdb	sp!, {r0, r1, r2, r4, r5, r6, r7, r8, r9, lr}
 8002638:	4c35      	ldr	r4, [pc, #212]	; (8002710 <onKeyboardTick+0xdc>)
 800263a:	7823      	ldrb	r3, [r4, #0]
 800263c:	2b00      	cmp	r3, #0
 800263e:	d052      	beq.n	80026e6 <onKeyboardTick+0xb2>
 8002640:	4668      	mov	r0, sp
 8002642:	f001 fd75 	bl	8004130 <getKeyboardState>
 8002646:	2000      	movs	r0, #0
 8002648:	7b27      	ldrb	r7, [r4, #12]
 800264a:	4626      	mov	r6, r4
 800264c:	f117 0900 	adds.w	r9, r7, #0
 8002650:	bf18      	it	ne
 8002652:	f04f 0901 	movne.w	r9, #1
 8002656:	4686      	mov	lr, r0
 8002658:	4603      	mov	r3, r0
 800265a:	2507      	movs	r5, #7
 800265c:	79a2      	ldrb	r2, [r4, #6]
 800265e:	f8d4 c008 	ldr.w	ip, [r4, #8]
 8002662:	f816 8f01 	ldrb.w	r8, [r6, #1]!
 8002666:	f81d 1003 	ldrb.w	r1, [sp, r3]
 800266a:	f1b8 0f00 	cmp.w	r8, #0
 800266e:	d13f      	bne.n	80026f0 <onKeyboardTick+0xbc>
 8002670:	b149      	cbz	r1, 8002686 <onKeyboardTick+0x52>
 8002672:	b2da      	uxtb	r2, r3
 8002674:	b907      	cbnz	r7, 8002678 <onKeyboardTick+0x44>
 8002676:	b113      	cbz	r3, 800267e <onKeyboardTick+0x4a>
 8002678:	2b04      	cmp	r3, #4
 800267a:	bf18      	it	ne
 800267c:	4615      	movne	r5, r2
 800267e:	4608      	mov	r0, r1
 8002680:	468e      	mov	lr, r1
 8002682:	f04f 0c00 	mov.w	ip, #0
 8002686:	3301      	adds	r3, #1
 8002688:	2b05      	cmp	r3, #5
 800268a:	7031      	strb	r1, [r6, #0]
 800268c:	d1e9      	bne.n	8002662 <onKeyboardTick+0x2e>
 800268e:	f1be 0f00 	cmp.w	lr, #0
 8002692:	d000      	beq.n	8002696 <onKeyboardTick+0x62>
 8002694:	71a2      	strb	r2, [r4, #6]
 8002696:	b108      	cbz	r0, 800269c <onKeyboardTick+0x68>
 8002698:	f8c4 c008 	str.w	ip, [r4, #8]
 800269c:	79a3      	ldrb	r3, [r4, #6]
 800269e:	2b05      	cmp	r3, #5
 80026a0:	d01f      	beq.n	80026e2 <onKeyboardTick+0xae>
 80026a2:	2101      	movs	r1, #1
 80026a4:	481b      	ldr	r0, [pc, #108]	; (8002714 <onKeyboardTick+0xe0>)
 80026a6:	f7fd fffa 	bl	800069e <addClamped>
 80026aa:	68a3      	ldr	r3, [r4, #8]
 80026ac:	2b13      	cmp	r3, #19
 80026ae:	d918      	bls.n	80026e2 <onKeyboardTick+0xae>
 80026b0:	07da      	lsls	r2, r3, #31
 80026b2:	d404      	bmi.n	80026be <onKeyboardTick+0x8a>
 80026b4:	79a2      	ldrb	r2, [r4, #6]
 80026b6:	1e91      	subs	r1, r2, #2
 80026b8:	2901      	cmp	r1, #1
 80026ba:	bf98      	it	ls
 80026bc:	4615      	movls	r5, r2
 80026be:	2b28      	cmp	r3, #40	; 0x28
 80026c0:	d10f      	bne.n	80026e2 <onKeyboardTick+0xae>
 80026c2:	79a3      	ldrb	r3, [r4, #6]
 80026c4:	b193      	cbz	r3, 80026ec <onKeyboardTick+0xb8>
 80026c6:	2b04      	cmp	r3, #4
 80026c8:	d10b      	bne.n	80026e2 <onKeyboardTick+0xae>
 80026ca:	2505      	movs	r5, #5
 80026cc:	6923      	ldr	r3, [r4, #16]
 80026ce:	4423      	add	r3, r4
 80026d0:	761d      	strb	r5, [r3, #24]
 80026d2:	6923      	ldr	r3, [r4, #16]
 80026d4:	3301      	adds	r3, #1
 80026d6:	f003 030f 	and.w	r3, r3, #15
 80026da:	6123      	str	r3, [r4, #16]
 80026dc:	e003      	b.n	80026e6 <onKeyboardTick+0xb2>
 80026de:	461d      	mov	r5, r3
 80026e0:	e013      	b.n	800270a <onKeyboardTick+0xd6>
 80026e2:	2d07      	cmp	r5, #7
 80026e4:	d1f2      	bne.n	80026cc <onKeyboardTick+0x98>
 80026e6:	b003      	add	sp, #12
 80026e8:	e8bd 83f0 	ldmia.w	sp!, {r4, r5, r6, r7, r8, r9, pc}
 80026ec:	2504      	movs	r5, #4
 80026ee:	e7ed      	b.n	80026cc <onKeyboardTick+0x98>
 80026f0:	2900      	cmp	r1, #0
 80026f2:	d1c8      	bne.n	8002686 <onKeyboardTick+0x52>
 80026f4:	429a      	cmp	r2, r3
 80026f6:	d1c6      	bne.n	8002686 <onKeyboardTick+0x52>
 80026f8:	f1bc 0f27 	cmp.w	ip, #39	; 0x27
 80026fc:	d805      	bhi.n	800270a <onKeyboardTick+0xd6>
 80026fe:	b90f      	cbnz	r7, 8002704 <onKeyboardTick+0xd0>
 8002700:	2b00      	cmp	r3, #0
 8002702:	d0ec      	beq.n	80026de <onKeyboardTick+0xaa>
 8002704:	2b04      	cmp	r3, #4
 8002706:	bf08      	it	eq
 8002708:	464d      	moveq	r5, r9
 800270a:	46c6      	mov	lr, r8
 800270c:	2205      	movs	r2, #5
 800270e:	e7ba      	b.n	8002686 <onKeyboardTick+0x52>
 8002710:	200002f8 	strdcs	r0, [r0], -r8
 8002714:	20000300 	andcs	r0, r0, r0, lsl #6

08002718 <setKeyboardMode>:
 8002718:	2205      	movs	r2, #5
 800271a:	4b02      	ldr	r3, [pc, #8]	; (8002724 <setKeyboardMode+0xc>)
 800271c:	719a      	strb	r2, [r3, #6]
 800271e:	7318      	strb	r0, [r3, #12]
 8002720:	4770      	bx	lr
 8002722:	bf00      	nop
 8002724:	200002f8 	strdcs	r0, [r0], -r8

08002728 <getKeyboardEvent>:
 8002728:	4b08      	ldr	r3, [pc, #32]	; (800274c <getKeyboardEvent+0x24>)
 800272a:	6919      	ldr	r1, [r3, #16]
 800272c:	695a      	ldr	r2, [r3, #20]
 800272e:	4291      	cmp	r1, r2
 8002730:	d009      	beq.n	8002746 <getKeyboardEvent+0x1e>
 8002732:	695a      	ldr	r2, [r3, #20]
 8002734:	441a      	add	r2, r3
 8002736:	7e10      	ldrb	r0, [r2, #24]
 8002738:	695a      	ldr	r2, [r3, #20]
 800273a:	b2c0      	uxtb	r0, r0
 800273c:	3201      	adds	r2, #1
 800273e:	f002 020f 	and.w	r2, r2, #15
 8002742:	615a      	str	r2, [r3, #20]
 8002744:	4770      	bx	lr
 8002746:	2007      	movs	r0, #7
 8002748:	4770      	bx	lr
 800274a:	bf00      	nop
 800274c:	200002f8 	strdcs	r0, [r0], -r8

08002750 <main>:
 8002750:	b5f8      	push	{r3, r4, r5, r6, r7, lr}
 8002752:	f001 fccb 	bl	80040ec <initSystem>
 8002756:	f7ff fb07 	bl	8001d68 <initEvents>
 800275a:	f002 f829 	bl	80047b0 <initFlash>
 800275e:	f001 fbeb 	bl	8003f38 <initSettings>
 8002762:	f001 f803 	bl	800376c <initPower>
 8002766:	f001 fee1 	bl	800452c <initComm>
 800276a:	f001 fe09 	bl	8004380 <initADC>
 800276e:	f002 fc9d 	bl	80050ac <initTube>
 8002772:	f7ff ff53 	bl	800261c <initKeyboard>
 8002776:	f7fd ff6f 	bl	8000658 <initBuzzer>
 800277a:	f7fe fe17 	bl	80013ac <initDisplay>
 800277e:	f002 fad7 	bl	8004d30 <initVibrator>
 8002782:	f000 fa53 	bl	8002c2c <initMeasurements>
 8002786:	f7ff fedb 	bl	8002540 <initGame>
 800278a:	f7fe fc7f 	bl	800108c <initDatalog>
 800278e:	4d38      	ldr	r5, [pc, #224]	; (8002870 <main+0x120>)
 8002790:	4e38      	ldr	r6, [pc, #224]	; (8002874 <main+0x124>)
 8002792:	4f39      	ldr	r7, [pc, #228]	; (8002878 <main+0x128>)
 8002794:	f7ff ffc8 	bl	8002728 <getKeyboardEvent>
 8002798:	2805      	cmp	r0, #5
 800279a:	f04f 0001 	mov.w	r0, #1
 800279e:	d15b      	bne.n	8002858 <main+0x108>
 80027a0:	f002 f8be 	bl	8004920 <setPower>
 80027a4:	f002 f806 	bl	80047b4 <verifyFlash>
 80027a8:	b990      	cbnz	r0, 80027d0 <main+0x80>
 80027aa:	2201      	movs	r2, #1
 80027ac:	4639      	mov	r1, r7
 80027ae:	4833      	ldr	r0, [pc, #204]	; (800287c <main+0x12c>)
 80027b0:	f7fe feaa 	bl	8001508 <drawNotification>
 80027b4:	f7fe fe2a 	bl	800140c <refreshDisplay>
 80027b8:	2001      	movs	r0, #1
 80027ba:	f7fe fe1d 	bl	80013f8 <setDisplayOn>
 80027be:	2001      	movs	r0, #1
 80027c0:	f001 ff96 	bl	80046f0 <setDisplayBacklight>
 80027c4:	f7fd ff5a 	bl	800067c <playSystemAlert>
 80027c8:	f44f 707a 	mov.w	r0, #1000	; 0x3e8
 80027cc:	f001 ffd4 	bl	8004778 <sleep>
 80027d0:	2201      	movs	r2, #1
 80027d2:	4629      	mov	r1, r5
 80027d4:	4630      	mov	r0, r6
 80027d6:	f7fe fe97 	bl	8001508 <drawNotification>
 80027da:	f7fe fe17 	bl	800140c <refreshDisplay>
 80027de:	2001      	movs	r0, #1
 80027e0:	f7fe fe0a 	bl	80013f8 <setDisplayOn>
 80027e4:	2001      	movs	r0, #1
 80027e6:	f001 ff83 	bl	80046f0 <setDisplayBacklight>
 80027ea:	f7ff fb35 	bl	8001e58 <getTick>
 80027ee:	4604      	mov	r4, r0
 80027f0:	f001 f9d8 	bl	8003ba4 <initRTC>
 80027f4:	f7ff fb30 	bl	8001e58 <getTick>
 80027f8:	1b00      	subs	r0, r0, r4
 80027fa:	f5b0 7f7a 	cmp.w	r0, #1000	; 0x3e8
 80027fe:	bf38      	it	cc
 8002800:	f44f 707a 	movcc.w	r0, #1000	; 0x3e8
 8002804:	f001 ffb8 	bl	8004778 <sleep>
 8002808:	2001      	movs	r0, #1
 800280a:	f002 fa4d 	bl	8004ca8 <setTubeHV>
 800280e:	f7ff fb2d 	bl	8001e6c <enableMeasurements>
 8002812:	2001      	movs	r0, #1
 8002814:	f7fd fffa 	bl	800080c <setCommEnabled>
 8002818:	f7fe fc59 	bl	80010ce <writeDatalog>
 800281c:	2000      	movs	r0, #0
 800281e:	f000 fc31 	bl	8003084 <setMeasurementView>
 8002822:	f7ff fb63 	bl	8001eec <triggerDisplay>
 8002826:	f000 ffb9 	bl	800379c <isPowerOffRequested>
 800282a:	b1c0      	cbz	r0, 800285e <main+0x10e>
 800282c:	f7fe fc4f 	bl	80010ce <writeDatalog>
 8002830:	f001 fbd4 	bl	8003fdc <writeSettings>
 8002834:	2000      	movs	r0, #0
 8002836:	f7fd ffe9 	bl	800080c <setCommEnabled>
 800283a:	f7ff fb1f 	bl	8001e7c <disableMeasurements>
 800283e:	2000      	movs	r0, #0
 8002840:	f002 fa32 	bl	8004ca8 <setTubeHV>
 8002844:	2000      	movs	r0, #0
 8002846:	f001 ff53 	bl	80046f0 <setDisplayBacklight>
 800284a:	2000      	movs	r0, #0
 800284c:	f7fe fdd4 	bl	80013f8 <setDisplayOn>
 8002850:	2000      	movs	r0, #0
 8002852:	f002 f865 	bl	8004920 <setPower>
 8002856:	e79d      	b.n	8002794 <main+0x44>
 8002858:	f001 ff8e 	bl	8004778 <sleep>
 800285c:	e79a      	b.n	8002794 <main+0x44>
 800285e:	2001      	movs	r0, #1
 8002860:	f001 ff8a 	bl	8004778 <sleep>
 8002864:	f7ff fe78 	bl	8002558 <dispatchGameEvents>
 8002868:	f7ff fb16 	bl	8001e98 <dispatchEvents>
 800286c:	e7db      	b.n	8002826 <main+0xd6>
 800286e:	bf00      	nop
 8002870:	08007589 	stmdaeq	r0, {r0, r3, r7, r8, sl, ip, sp, lr}
 8002874:	08006ffa 	stmdaeq	r0, {r1, r3, r4, r5, r6, r7, r8, r9, sl, fp, sp, lr}
 8002878:	08006fd7 	stmdaeq	r0, {r0, r1, r2, r4, r6, r7, r8, r9, sl, fp, sp, lr}
 800287c:	08006ff2 	stmdaeq	r0, {r1, r4, r5, r6, r7, r8, r9, sl, fp, sp, lr}

08002880 <onUnitsMenuGetOption>:
 8002880:	4b05      	ldr	r3, [pc, #20]	; (8002898 <onUnitsMenuGetOption+0x18>)
 8002882:	781b      	ldrb	r3, [r3, #0]
 8002884:	f3c3 0341 	ubfx	r3, r3, #1, #2
 8002888:	1a58      	subs	r0, r3, r1
 800288a:	4243      	negs	r3, r0
 800288c:	4143      	adcs	r3, r0
 800288e:	6013      	str	r3, [r2, #0]
 8002890:	4b02      	ldr	r3, [pc, #8]	; (800289c <onUnitsMenuGetOption+0x1c>)
 8002892:	f853 0021 	ldr.w	r0, [r3, r1, lsl #2]
 8002896:	4770      	bx	lr
 8002898:	20000da0 	andcs	r0, r0, r0, lsr #27
 800289c:	080071e4 	stmdaeq	r0, {r2, r5, r6, r7, r8, ip, sp, lr}

080028a0 <onUnitsMenuSelect>:
 80028a0:	4b03      	ldr	r3, [pc, #12]	; (80028b0 <onUnitsMenuSelect+0x10>)
 80028a2:	6841      	ldr	r1, [r0, #4]
 80028a4:	781a      	ldrb	r2, [r3, #0]
 80028a6:	8849      	ldrh	r1, [r1, #2]
 80028a8:	f361 0242 	bfi	r2, r1, #1, #2
 80028ac:	701a      	strb	r2, [r3, #0]
 80028ae:	4770      	bx	lr
 80028b0:	20000da0 	andcs	r0, r0, r0, lsr #27

080028b4 <onAverageTimerMenuGetOption>:
 80028b4:	4b05      	ldr	r3, [pc, #20]	; (80028cc <onAverageTimerMenuGetOption+0x18>)
 80028b6:	781b      	ldrb	r3, [r3, #0]
 80028b8:	f3c3 03c2 	ubfx	r3, r3, #3, #3
 80028bc:	1a58      	subs	r0, r3, r1
 80028be:	4243      	negs	r3, r0
 80028c0:	4143      	adcs	r3, r0
 80028c2:	6013      	str	r3, [r2, #0]
 80028c4:	4b02      	ldr	r3, [pc, #8]	; (80028d0 <onAverageTimerMenuGetOption+0x1c>)
 80028c6:	f853 0021 	ldr.w	r0, [r3, r1, lsl #2]
 80028ca:	4770      	bx	lr
 80028cc:	20000da0 	andcs	r0, r0, r0, lsr #27
 80028d0:	08007020 	stmdaeq	r0, {r5, ip, sp, lr}

080028d4 <onAverageTimerMenuSelect>:
 80028d4:	4b03      	ldr	r3, [pc, #12]	; (80028e4 <onAverageTimerMenuSelect+0x10>)
 80028d6:	6841      	ldr	r1, [r0, #4]
 80028d8:	781a      	ldrb	r2, [r3, #0]
 80028da:	8849      	ldrh	r1, [r1, #2]
 80028dc:	f361 02c5 	bfi	r2, r1, #3, #3
 80028e0:	701a      	strb	r2, [r3, #0]
 80028e2:	4770      	bx	lr
 80028e4:	20000da0 	andcs	r0, r0, r0, lsr #27

080028e8 <onRateAlarmMenuSelect>:
 80028e8:	4b03      	ldr	r3, [pc, #12]	; (80028f8 <onRateAlarmMenuSelect+0x10>)
 80028ea:	6841      	ldr	r1, [r0, #4]
 80028ec:	881a      	ldrh	r2, [r3, #0]
 80028ee:	8849      	ldrh	r1, [r1, #2]
 80028f0:	f361 1289 	bfi	r2, r1, #6, #4
 80028f4:	801a      	strh	r2, [r3, #0]
 80028f6:	4770      	bx	lr
 80028f8:	20000da0 	andcs	r0, r0, r0, lsr #27

080028fc <onDoseAlarmMenuSelect>:
 80028fc:	4b03      	ldr	r3, [pc, #12]	; (800290c <onDoseAlarmMenuSelect+0x10>)
 80028fe:	6841      	ldr	r1, [r0, #4]
 8002900:	785a      	ldrb	r2, [r3, #1]
 8002902:	8849      	ldrh	r1, [r1, #2]
 8002904:	f361 0285 	bfi	r2, r1, #2, #4
 8002908:	705a      	strb	r2, [r3, #1]
 800290a:	4770      	bx	lr
 800290c:	20000da0 	andcs	r0, r0, r0, lsr #27

08002910 <buildValueString>:
 8002910:	e92d 41f0 	stmdb	sp!, {r4, r5, r6, r7, r8, lr}
 8002914:	461d      	mov	r5, r3
 8002916:	4616      	mov	r6, r2
 8002918:	460f      	mov	r7, r1
 800291a:	4911      	ldr	r1, [pc, #68]	; (8002960 <buildValueString+0x50>)
 800291c:	4604      	mov	r4, r0
 800291e:	f003 fb9d 	bl	800605c <strcpy>
 8002922:	6869      	ldr	r1, [r5, #4]
 8002924:	4630      	mov	r0, r6
 8002926:	f001 fdb5 	bl	8004494 <__aeabi_fmul>
 800292a:	f995 8008 	ldrsb.w	r8, [r5, #8]
 800292e:	4601      	mov	r1, r0
 8002930:	4642      	mov	r2, r8
 8002932:	4620      	mov	r0, r4
 8002934:	f7fe f968 	bl	8000c08 <strcatFloatWithMetricPrefix>
 8002938:	6829      	ldr	r1, [r5, #0]
 800293a:	4620      	mov	r0, r4
 800293c:	f003 fb7f 	bl	800603e <strcat>
 8002940:	2100      	movs	r1, #0
 8002942:	4630      	mov	r0, r6
 8002944:	f001 fdb5 	bl	80044b2 <__aeabi_fcmpeq>
 8002948:	b118      	cbz	r0, 8002952 <buildValueString+0x42>
 800294a:	4906      	ldr	r1, [pc, #24]	; (8002964 <buildValueString+0x54>)
 800294c:	4620      	mov	r0, r4
 800294e:	f003 fb85 	bl	800605c <strcpy>
 8002952:	2300      	movs	r3, #0
 8002954:	3406      	adds	r4, #6
 8002956:	f804 3c01 	strb.w	r3, [r4, #-1]
 800295a:	603c      	str	r4, [r7, #0]
 800295c:	e8bd 81f0 	ldmia.w	sp!, {r4, r5, r6, r7, r8, pc}
 8002960:	080062da 	stmdaeq	r0, {r1, r3, r4, r6, r7, r9, sp, lr}
 8002964:	08007054 	stmdaeq	r0, {r2, r4, r6, ip, sp, lr}

08002968 <isInstantaneousRateAlarm>:
 8002968:	4b0c      	ldr	r3, [pc, #48]	; (800299c <isInstantaneousRateAlarm+0x34>)
 800296a:	b510      	push	{r4, lr}
 800296c:	881c      	ldrh	r4, [r3, #0]
 800296e:	f414 7070 	ands.w	r0, r4, #960	; 0x3c0
 8002972:	d012      	beq.n	800299a <isInstantaneousRateAlarm+0x32>
 8002974:	4b0a      	ldr	r3, [pc, #40]	; (80029a0 <isInstantaneousRateAlarm+0x38>)
 8002976:	f8d3 11ac 	ldr.w	r1, [r3, #428]	; 0x1ac
 800297a:	4b0a      	ldr	r3, [pc, #40]	; (80029a4 <isInstantaneousRateAlarm+0x3c>)
 800297c:	6858      	ldr	r0, [r3, #4]
 800297e:	f001 fd89 	bl	8004494 <__aeabi_fmul>
 8002982:	4a09      	ldr	r2, [pc, #36]	; (80029a8 <isInstantaneousRateAlarm+0x40>)
 8002984:	f3c4 1383 	ubfx	r3, r4, #6, #4
 8002988:	f852 1023 	ldr.w	r1, [r2, r3, lsl #2]
 800298c:	f04f 0401 	mov.w	r4, #1
 8002990:	f001 fd9b 	bl	80044ca <__aeabi_fcmpge>
 8002994:	b900      	cbnz	r0, 8002998 <isInstantaneousRateAlarm+0x30>
 8002996:	4604      	mov	r4, r0
 8002998:	b2e0      	uxtb	r0, r4
 800299a:	bd10      	pop	{r4, pc}
 800299c:	20000da0 	andcs	r0, r0, r0, lsr #27
 80029a0:	20000328 	andcs	r0, r0, r8, lsr #6
 80029a4:	2000000c 	andcs	r0, r0, ip
 80029a8:	08007144 	stmdaeq	r0, {r2, r6, r8, ip, sp, lr}

080029ac <isDoseAlarm>:
 80029ac:	4b0d      	ldr	r3, [pc, #52]	; (80029e4 <isDoseAlarm+0x38>)
 80029ae:	b510      	push	{r4, lr}
 80029b0:	785c      	ldrb	r4, [r3, #1]
 80029b2:	f014 003c 	ands.w	r0, r4, #60	; 0x3c
 80029b6:	d014      	beq.n	80029e2 <isDoseAlarm+0x36>
 80029b8:	4b0b      	ldr	r3, [pc, #44]	; (80029e8 <isDoseAlarm+0x3c>)
 80029ba:	f8d3 0200 	ldr.w	r0, [r3, #512]	; 0x200
 80029be:	f001 fd6d 	bl	800449c <__aeabi_ui2f>
 80029c2:	4b0a      	ldr	r3, [pc, #40]	; (80029ec <isDoseAlarm+0x40>)
 80029c4:	6919      	ldr	r1, [r3, #16]
 80029c6:	f001 fd65 	bl	8004494 <__aeabi_fmul>
 80029ca:	4a09      	ldr	r2, [pc, #36]	; (80029f0 <isDoseAlarm+0x44>)
 80029cc:	f3c4 0383 	ubfx	r3, r4, #2, #4
 80029d0:	f852 1023 	ldr.w	r1, [r2, r3, lsl #2]
 80029d4:	f04f 0401 	mov.w	r4, #1
 80029d8:	f001 fd77 	bl	80044ca <__aeabi_fcmpge>
 80029dc:	b900      	cbnz	r0, 80029e0 <isDoseAlarm+0x34>
 80029de:	4604      	mov	r4, r0
 80029e0:	b2e0      	uxtb	r0, r4
 80029e2:	bd10      	pop	{r4, pc}
 80029e4:	20000da0 	andcs	r0, r0, r0, lsr #27
 80029e8:	20000328 	andcs	r0, r0, r8, lsr #6
 80029ec:	2000000c 	andcs	r0, r0, ip
 80029f0:	08007078 	stmdaeq	r0, {r3, r4, r5, r6, ip, sp, lr}

080029f4 <onDoseAlarmMenuGetOption>:
 80029f4:	4608      	mov	r0, r1
 80029f6:	4919      	ldr	r1, [pc, #100]	; (8002a5c <onDoseAlarmMenuGetOption+0x68>)
 80029f8:	b570      	push	{r4, r5, r6, lr}
 80029fa:	784b      	ldrb	r3, [r1, #1]
 80029fc:	f3c3 0383 	ubfx	r3, r3, #2, #4
 8002a00:	1a1c      	subs	r4, r3, r0
 8002a02:	4263      	negs	r3, r4
 8002a04:	4163      	adcs	r3, r4
 8002a06:	6013      	str	r3, [r2, #0]
 8002a08:	b320      	cbz	r0, 8002a54 <onDoseAlarmMenuGetOption+0x60>
 8002a0a:	2808      	cmp	r0, #8
 8002a0c:	d824      	bhi.n	8002a58 <onDoseAlarmMenuGetOption+0x64>
 8002a0e:	4b14      	ldr	r3, [pc, #80]	; (8002a60 <onDoseAlarmMenuGetOption+0x6c>)
 8002a10:	4d14      	ldr	r5, [pc, #80]	; (8002a64 <onDoseAlarmMenuGetOption+0x70>)
 8002a12:	780c      	ldrb	r4, [r1, #0]
 8002a14:	f853 0020 	ldr.w	r0, [r3, r0, lsl #2]
 8002a18:	6929      	ldr	r1, [r5, #16]
 8002a1a:	f001 fd3d 	bl	8004498 <__aeabi_fdiv>
 8002a1e:	4912      	ldr	r1, [pc, #72]	; (8002a68 <onDoseAlarmMenuGetOption+0x74>)
 8002a20:	4606      	mov	r6, r0
 8002a22:	4812      	ldr	r0, [pc, #72]	; (8002a6c <onDoseAlarmMenuGetOption+0x78>)
 8002a24:	f003 fb1a 	bl	800605c <strcpy>
 8002a28:	2318      	movs	r3, #24
 8002a2a:	f3c4 0441 	ubfx	r4, r4, #1, #2
 8002a2e:	fb03 5404 	mla	r4, r3, r4, r5
 8002a32:	4630      	mov	r0, r6
 8002a34:	6921      	ldr	r1, [r4, #16]
 8002a36:	f001 fd2d 	bl	8004494 <__aeabi_fmul>
 8002a3a:	f994 5014 	ldrsb.w	r5, [r4, #20]
 8002a3e:	4601      	mov	r1, r0
 8002a40:	462a      	mov	r2, r5
 8002a42:	480a      	ldr	r0, [pc, #40]	; (8002a6c <onDoseAlarmMenuGetOption+0x78>)
 8002a44:	f7fe f8e0 	bl	8000c08 <strcatFloatWithMetricPrefix>
 8002a48:	68e1      	ldr	r1, [r4, #12]
 8002a4a:	4808      	ldr	r0, [pc, #32]	; (8002a6c <onDoseAlarmMenuGetOption+0x78>)
 8002a4c:	f003 faf7 	bl	800603e <strcat>
 8002a50:	4806      	ldr	r0, [pc, #24]	; (8002a6c <onDoseAlarmMenuGetOption+0x78>)
 8002a52:	bd70      	pop	{r4, r5, r6, pc}
 8002a54:	4806      	ldr	r0, [pc, #24]	; (8002a70 <onDoseAlarmMenuGetOption+0x7c>)
 8002a56:	e7fc      	b.n	8002a52 <onDoseAlarmMenuGetOption+0x5e>
 8002a58:	2000      	movs	r0, #0
 8002a5a:	e7fa      	b.n	8002a52 <onDoseAlarmMenuGetOption+0x5e>
 8002a5c:	20000da0 	andcs	r0, r0, r0, lsr #27
 8002a60:	08007078 	stmdaeq	r0, {r3, r4, r5, r6, ip, sp, lr}
 8002a64:	2000000c 	andcs	r0, r0, ip
 8002a68:	080062da 	stmdaeq	r0, {r1, r3, r4, r6, r7, r9, sp, lr}
 8002a6c:	20000d7c 	andcs	r0, r0, ip, ror sp
 8002a70:	08006184 	stmdaeq	r0, {r2, r7, r8, sp, lr}

08002a74 <onRateAlarmMenuGetOption>:
 8002a74:	4608      	mov	r0, r1
 8002a76:	4919      	ldr	r1, [pc, #100]	; (8002adc <onRateAlarmMenuGetOption+0x68>)
 8002a78:	b5f8      	push	{r3, r4, r5, r6, r7, lr}
 8002a7a:	880b      	ldrh	r3, [r1, #0]
 8002a7c:	f3c3 1383 	ubfx	r3, r3, #6, #4
 8002a80:	1a1c      	subs	r4, r3, r0
 8002a82:	4263      	negs	r3, r4
 8002a84:	4163      	adcs	r3, r4
 8002a86:	6013      	str	r3, [r2, #0]
 8002a88:	b320      	cbz	r0, 8002ad4 <onRateAlarmMenuGetOption+0x60>
 8002a8a:	2808      	cmp	r0, #8
 8002a8c:	d824      	bhi.n	8002ad8 <onRateAlarmMenuGetOption+0x64>
 8002a8e:	4b14      	ldr	r3, [pc, #80]	; (8002ae0 <onRateAlarmMenuGetOption+0x6c>)
 8002a90:	4d14      	ldr	r5, [pc, #80]	; (8002ae4 <onRateAlarmMenuGetOption+0x70>)
 8002a92:	780c      	ldrb	r4, [r1, #0]
 8002a94:	f853 0020 	ldr.w	r0, [r3, r0, lsl #2]
 8002a98:	6869      	ldr	r1, [r5, #4]
 8002a9a:	f001 fcfd 	bl	8004498 <__aeabi_fdiv>
 8002a9e:	f3c4 0641 	ubfx	r6, r4, #1, #2
 8002aa2:	2418      	movs	r4, #24
 8002aa4:	4607      	mov	r7, r0
 8002aa6:	4374      	muls	r4, r6
 8002aa8:	490f      	ldr	r1, [pc, #60]	; (8002ae8 <onRateAlarmMenuGetOption+0x74>)
 8002aaa:	4810      	ldr	r0, [pc, #64]	; (8002aec <onRateAlarmMenuGetOption+0x78>)
 8002aac:	f003 fad6 	bl	800605c <strcpy>
 8002ab0:	192b      	adds	r3, r5, r4
 8002ab2:	6859      	ldr	r1, [r3, #4]
 8002ab4:	4638      	mov	r0, r7
 8002ab6:	f993 6008 	ldrsb.w	r6, [r3, #8]
 8002aba:	f001 fceb 	bl	8004494 <__aeabi_fmul>
 8002abe:	4632      	mov	r2, r6
 8002ac0:	4601      	mov	r1, r0
 8002ac2:	480a      	ldr	r0, [pc, #40]	; (8002aec <onRateAlarmMenuGetOption+0x78>)
 8002ac4:	f7fe f8a0 	bl	8000c08 <strcatFloatWithMetricPrefix>
 8002ac8:	5929      	ldr	r1, [r5, r4]
 8002aca:	4808      	ldr	r0, [pc, #32]	; (8002aec <onRateAlarmMenuGetOption+0x78>)
 8002acc:	f003 fab7 	bl	800603e <strcat>
 8002ad0:	4806      	ldr	r0, [pc, #24]	; (8002aec <onRateAlarmMenuGetOption+0x78>)
 8002ad2:	bdf8      	pop	{r3, r4, r5, r6, r7, pc}
 8002ad4:	4806      	ldr	r0, [pc, #24]	; (8002af0 <onRateAlarmMenuGetOption+0x7c>)
 8002ad6:	e7fc      	b.n	8002ad2 <onRateAlarmMenuGetOption+0x5e>
 8002ad8:	2000      	movs	r0, #0
 8002ada:	e7fa      	b.n	8002ad2 <onRateAlarmMenuGetOption+0x5e>
 8002adc:	20000da0 	andcs	r0, r0, r0, lsr #27
 8002ae0:	08007144 	stmdaeq	r0, {r2, r6, r8, ip, sp, lr}
 8002ae4:	2000000c 	andcs	r0, r0, ip
 8002ae8:	080062da 	stmdaeq	r0, {r1, r3, r4, r6, r7, r9, sp, lr}
 8002aec:	20000d7c 	andcs	r0, r0, ip, ror sp
 8002af0:	08006184 	stmdaeq	r0, {r2, r7, r8, sp, lr}

08002af4 <getDeadTimeCompensationFactor>:
 8002af4:	4b10      	ldr	r3, [pc, #64]	; (8002b38 <getDeadTimeCompensationFactor+0x44>)
 8002af6:	b510      	push	{r4, lr}
 8002af8:	78db      	ldrb	r3, [r3, #3]
 8002afa:	4604      	mov	r4, r0
 8002afc:	069b      	lsls	r3, r3, #26
 8002afe:	d015      	beq.n	8002b2c <getDeadTimeCompensationFactor+0x38>
 8002b00:	f002 fb28 	bl	8005154 <getTubeDeadTimeCompensation>
 8002b04:	4601      	mov	r1, r0
 8002b06:	4620      	mov	r0, r4
 8002b08:	f001 fcc4 	bl	8004494 <__aeabi_fmul>
 8002b0c:	4601      	mov	r1, r0
 8002b0e:	f04f 507e 	mov.w	r0, #1065353216	; 0x3f800000
 8002b12:	f001 fcbd 	bl	8004490 <__aeabi_fsub>
 8002b16:	4909      	ldr	r1, [pc, #36]	; (8002b3c <getDeadTimeCompensationFactor+0x48>)
 8002b18:	4604      	mov	r4, r0
 8002b1a:	f001 fcdc 	bl	80044d6 <__aeabi_fcmpgt>
 8002b1e:	b140      	cbz	r0, 8002b32 <getDeadTimeCompensationFactor+0x3e>
 8002b20:	4621      	mov	r1, r4
 8002b22:	f04f 507e 	mov.w	r0, #1065353216	; 0x3f800000
 8002b26:	f001 fcb7 	bl	8004498 <__aeabi_fdiv>
 8002b2a:	bd10      	pop	{r4, pc}
 8002b2c:	f04f 507e 	mov.w	r0, #1065353216	; 0x3f800000
 8002b30:	e7fb      	b.n	8002b2a <getDeadTimeCompensationFactor+0x36>
 8002b32:	4803      	ldr	r0, [pc, #12]	; (8002b40 <getDeadTimeCompensationFactor+0x4c>)
 8002b34:	e7f9      	b.n	8002b2a <getDeadTimeCompensationFactor+0x36>
 8002b36:	bf00      	nop
 8002b38:	20000da0 	andcs	r0, r0, r0, lsr #27
 8002b3c:	3dcccccd 	stclcc	12, cr12, [ip, #820]	; 0x334
 8002b40:	41200000 			; <UNDEFINED> instruction: 0x41200000

08002b44 <calculateRate>:
 8002b44:	e92d 41f3 	stmdb	sp!, {r0, r1, r4, r5, r6, r7, r8, lr}
 8002b48:	4614      	mov	r4, r2
 8002b4a:	e9cd 1000 	strd	r1, r0, [sp]
 8002b4e:	b929      	cbnz	r1, 8002b5c <calculateRate+0x18>
 8002b50:	2300      	movs	r3, #0
 8002b52:	6053      	str	r3, [r2, #4]
 8002b54:	6093      	str	r3, [r2, #8]
 8002b56:	b002      	add	sp, #8
 8002b58:	e8bd 81f0 	ldmia.w	sp!, {r4, r5, r6, r7, r8, pc}
 8002b5c:	4281      	cmp	r1, r0
 8002b5e:	d207      	bcs.n	8002b70 <calculateRate+0x2c>
 8002b60:	2101      	movs	r1, #1
 8002b62:	a801      	add	r0, sp, #4
 8002b64:	f7fd fd9b 	bl	800069e <addClamped>
 8002b68:	2101      	movs	r1, #1
 8002b6a:	4668      	mov	r0, sp
 8002b6c:	f7fd fd97 	bl	800069e <addClamped>
 8002b70:	9d01      	ldr	r5, [sp, #4]
 8002b72:	3d01      	subs	r5, #1
 8002b74:	4628      	mov	r0, r5
 8002b76:	f001 fc91 	bl	800449c <__aeabi_ui2f>
 8002b7a:	4919      	ldr	r1, [pc, #100]	; (8002be0 <calculateRate+0x9c>)
 8002b7c:	f001 fc8a 	bl	8004494 <__aeabi_fmul>
 8002b80:	4606      	mov	r6, r0
 8002b82:	9800      	ldr	r0, [sp, #0]
 8002b84:	f001 fc8a 	bl	800449c <__aeabi_ui2f>
 8002b88:	4601      	mov	r1, r0
 8002b8a:	4630      	mov	r0, r6
 8002b8c:	f001 fc84 	bl	8004498 <__aeabi_fdiv>
 8002b90:	4606      	mov	r6, r0
 8002b92:	4628      	mov	r0, r5
 8002b94:	f7fd fd8c 	bl	80006b0 <getConfidenceInterval>
 8002b98:	4607      	mov	r7, r0
 8002b9a:	4630      	mov	r0, r6
 8002b9c:	f7ff ffaa 	bl	8002af4 <getDeadTimeCompensationFactor>
 8002ba0:	f04f 517e 	mov.w	r1, #1065353216	; 0x3f800000
 8002ba4:	4605      	mov	r5, r0
 8002ba6:	4638      	mov	r0, r7
 8002ba8:	f001 fc70 	bl	800448c <__aeabi_fadd>
 8002bac:	4631      	mov	r1, r6
 8002bae:	4607      	mov	r7, r0
 8002bb0:	f001 fc70 	bl	8004494 <__aeabi_fmul>
 8002bb4:	f7ff ff9e 	bl	8002af4 <getDeadTimeCompensationFactor>
 8002bb8:	4629      	mov	r1, r5
 8002bba:	4680      	mov	r8, r0
 8002bbc:	4630      	mov	r0, r6
 8002bbe:	f001 fc69 	bl	8004494 <__aeabi_fmul>
 8002bc2:	4629      	mov	r1, r5
 8002bc4:	6060      	str	r0, [r4, #4]
 8002bc6:	4640      	mov	r0, r8
 8002bc8:	f001 fc66 	bl	8004498 <__aeabi_fdiv>
 8002bcc:	4639      	mov	r1, r7
 8002bce:	f001 fc61 	bl	8004494 <__aeabi_fmul>
 8002bd2:	f04f 517e 	mov.w	r1, #1065353216	; 0x3f800000
 8002bd6:	f001 fc5b 	bl	8004490 <__aeabi_fsub>
 8002bda:	60a0      	str	r0, [r4, #8]
 8002bdc:	e7bb      	b.n	8002b56 <calculateRate+0x12>
 8002bde:	bf00      	nop
 8002be0:	447a0000 	ldrbtmi	r0, [sl], #-0

08002be4 <updateMeasurementUnits>:
 8002be4:	b538      	push	{r3, r4, r5, lr}
 8002be6:	f002 fa97 	bl	8005118 <getTubeConversionFactor>
 8002bea:	4605      	mov	r5, r0
 8002bec:	4601      	mov	r1, r0
 8002bee:	480a      	ldr	r0, [pc, #40]	; (8002c18 <updateMeasurementUnits+0x34>)
 8002bf0:	f001 fc52 	bl	8004498 <__aeabi_fdiv>
 8002bf4:	4c09      	ldr	r4, [pc, #36]	; (8002c1c <updateMeasurementUnits+0x38>)
 8002bf6:	4629      	mov	r1, r5
 8002bf8:	6060      	str	r0, [r4, #4]
 8002bfa:	4809      	ldr	r0, [pc, #36]	; (8002c20 <updateMeasurementUnits+0x3c>)
 8002bfc:	f001 fc4c 	bl	8004498 <__aeabi_fdiv>
 8002c00:	4629      	mov	r1, r5
 8002c02:	6120      	str	r0, [r4, #16]
 8002c04:	4807      	ldr	r0, [pc, #28]	; (8002c24 <updateMeasurementUnits+0x40>)
 8002c06:	f001 fc47 	bl	8004498 <__aeabi_fdiv>
 8002c0a:	4629      	mov	r1, r5
 8002c0c:	61e0      	str	r0, [r4, #28]
 8002c0e:	4806      	ldr	r0, [pc, #24]	; (8002c28 <updateMeasurementUnits+0x44>)
 8002c10:	f001 fc42 	bl	8004498 <__aeabi_fdiv>
 8002c14:	62a0      	str	r0, [r4, #40]	; 0x28
 8002c16:	bd38      	pop	{r3, r4, r5, pc}
 8002c18:	387ba882 	ldmdacc	fp!, {r1, r7, fp, sp, pc}^
 8002c1c:	2000000c 	andcs	r0, r0, ip
 8002c20:	328f2a63 	addcc	r2, pc, #405504	; 0x63000
 8002c24:	3bc49ba6 	blcc	7129ac4 <_Min_Stack_Size+0x71296c4>
 8002c28:	35dfb23b 	ldrbcc	fp, [pc, #571]	; 8002e6b <updateMeasurements+0x19b>

08002c2c <initMeasurements>:
 8002c2c:	b510      	push	{r4, lr}
 8002c2e:	4c10      	ldr	r4, [pc, #64]	; (8002c70 <initMeasurements+0x44>)
 8002c30:	2204      	movs	r2, #4
 8002c32:	7821      	ldrb	r1, [r4, #0]
 8002c34:	480f      	ldr	r0, [pc, #60]	; (8002c74 <initMeasurements+0x48>)
 8002c36:	f3c1 0141 	ubfx	r1, r1, #1, #2
 8002c3a:	f000 fd17 	bl	800366c <selectMenuItem>
 8002c3e:	7821      	ldrb	r1, [r4, #0]
 8002c40:	2205      	movs	r2, #5
 8002c42:	f3c1 01c2 	ubfx	r1, r1, #3, #3
 8002c46:	480c      	ldr	r0, [pc, #48]	; (8002c78 <initMeasurements+0x4c>)
 8002c48:	f000 fd10 	bl	800366c <selectMenuItem>
 8002c4c:	8821      	ldrh	r1, [r4, #0]
 8002c4e:	2209      	movs	r2, #9
 8002c50:	f3c1 1183 	ubfx	r1, r1, #6, #4
 8002c54:	4809      	ldr	r0, [pc, #36]	; (8002c7c <initMeasurements+0x50>)
 8002c56:	f000 fd09 	bl	800366c <selectMenuItem>
 8002c5a:	7861      	ldrb	r1, [r4, #1]
 8002c5c:	2209      	movs	r2, #9
 8002c5e:	f3c1 0183 	ubfx	r1, r1, #2, #4
 8002c62:	4807      	ldr	r0, [pc, #28]	; (8002c80 <initMeasurements+0x54>)
 8002c64:	f000 fd02 	bl	800366c <selectMenuItem>
 8002c68:	e8bd 4010 	ldmia.w	sp!, {r4, lr}
 8002c6c:	f7ff bfba 	b.w	8002be4 <updateMeasurementUnits>
 8002c70:	20000da0 	andcs	r0, r0, r0, lsr #27
 8002c74:	080071d0 	stmdaeq	r0, {r4, r6, r7, r8, ip, sp, lr}
 8002c78:	0800700c 	stmdaeq	r0, {r2, r3, ip, sp, lr}
 8002c7c:	08007128 	stmdaeq	r0, {r3, r5, r8, ip, sp, lr}
 8002c80:	0800705c 	stmdaeq	r0, {r2, r3, r4, r6, ip, sp, lr}

08002c84 <onMeasurementTick>:
 8002c84:	b538      	push	{r3, r4, r5, lr}
 8002c86:	4605      	mov	r5, r0
 8002c88:	b178      	cbz	r0, 8002caa <onMeasurementTick+0x26>
 8002c8a:	4c08      	ldr	r4, [pc, #32]	; (8002cac <onMeasurementTick+0x28>)
 8002c8c:	68a3      	ldr	r3, [r4, #8]
 8002c8e:	b913      	cbnz	r3, 8002c96 <onMeasurementTick+0x12>
 8002c90:	f7ff f8e2 	bl	8001e58 <getTick>
 8002c94:	6020      	str	r0, [r4, #0]
 8002c96:	f7ff f8df 	bl	8001e58 <getTick>
 8002c9a:	6060      	str	r0, [r4, #4]
 8002c9c:	68a0      	ldr	r0, [r4, #8]
 8002c9e:	4428      	add	r0, r5
 8002ca0:	60a0      	str	r0, [r4, #8]
 8002ca2:	e8bd 4038 	ldmia.w	sp!, {r3, r4, r5, lr}
 8002ca6:	f7ff b941 	b.w	8001f2c <triggerPulse>
 8002caa:	bd38      	pop	{r3, r4, r5, pc}
 8002cac:	20000328 	andcs	r0, r0, r8, lsr #6

08002cb0 <onMeasurementPeriod>:
 8002cb0:	b510      	push	{r4, lr}
 8002cb2:	f7ff f8d1 	bl	8001e58 <getTick>
 8002cb6:	4b05      	ldr	r3, [pc, #20]	; (8002ccc <onMeasurementPeriod+0x1c>)
 8002cb8:	f103 0410 	add.w	r4, r3, #16
 8002cbc:	60d8      	str	r0, [r3, #12]
 8002cbe:	e893 0007 	ldmia.w	r3, {r0, r1, r2}
 8002cc2:	e884 0007 	stmia.w	r4, {r0, r1, r2}
 8002cc6:	2200      	movs	r2, #0
 8002cc8:	609a      	str	r2, [r3, #8]
 8002cca:	bd10      	pop	{r4, pc}
 8002ccc:	20000328 	andcs	r0, r0, r8, lsr #6

08002cd0 <updateMeasurements>:
 8002cd0:	e92d 4ff0 	stmdb	sp!, {r4, r5, r6, r7, r8, r9, sl, fp, lr}
 8002cd4:	4cbb      	ldr	r4, [pc, #748]	; (8002fc4 <updateMeasurements+0x2f4>)
 8002cd6:	b089      	sub	sp, #36	; 0x24
 8002cd8:	6923      	ldr	r3, [r4, #16]
 8002cda:	e9d4 6005 	ldrd	r6, r0, [r4, #20]
 8002cde:	9303      	str	r3, [sp, #12]
 8002ce0:	f001 fbdc 	bl	800449c <__aeabi_ui2f>
 8002ce4:	4605      	mov	r5, r0
 8002ce6:	f8d4 01ac 	ldr.w	r0, [r4, #428]	; 0x1ac
 8002cea:	f7ff ff03 	bl	8002af4 <getDeadTimeCompensationFactor>
 8002cee:	4601      	mov	r1, r0
 8002cf0:	4628      	mov	r0, r5
 8002cf2:	f001 fbcf 	bl	8004494 <__aeabi_fmul>
 8002cf6:	69e1      	ldr	r1, [r4, #28]
 8002cf8:	f001 fbc8 	bl	800448c <__aeabi_fadd>
 8002cfc:	4607      	mov	r7, r0
 8002cfe:	f001 fbd6 	bl	80044ae <__aeabi_f2uiz>
 8002d02:	4605      	mov	r5, r0
 8002d04:	f001 fbca 	bl	800449c <__aeabi_ui2f>
 8002d08:	4601      	mov	r1, r0
 8002d0a:	4638      	mov	r0, r7
 8002d0c:	f001 fbc0 	bl	8004490 <__aeabi_fsub>
 8002d10:	61e0      	str	r0, [r4, #28]
 8002d12:	2d00      	cmp	r5, #0
 8002d14:	f000 81a8 	beq.w	8003068 <updateMeasurements+0x398>
 8002d18:	230c      	movs	r3, #12
 8002d1a:	6a62      	ldr	r2, [r4, #36]	; 0x24
 8002d1c:	9903      	ldr	r1, [sp, #12]
 8002d1e:	4353      	muls	r3, r2
 8002d20:	3328      	adds	r3, #40	; 0x28
 8002d22:	18e2      	adds	r2, r4, r3
 8002d24:	50e1      	str	r1, [r4, r3]
 8002d26:	e9c2 6501 	strd	r6, r5, [r2, #4]
 8002d2a:	6a63      	ldr	r3, [r4, #36]	; 0x24
 8002d2c:	6a22      	ldr	r2, [r4, #32]
 8002d2e:	3301      	adds	r3, #1
 8002d30:	f003 031f 	and.w	r3, r3, #31
 8002d34:	4293      	cmp	r3, r2
 8002d36:	6263      	str	r3, [r4, #36]	; 0x24
 8002d38:	bf02      	ittt	eq
 8002d3a:	3301      	addeq	r3, #1
 8002d3c:	f003 031f 	andeq.w	r3, r3, #31
 8002d40:	6223      	streq	r3, [r4, #32]
 8002d42:	4ba1      	ldr	r3, [pc, #644]	; (8002fc8 <updateMeasurements+0x2f8>)
 8002d44:	49a1      	ldr	r1, [pc, #644]	; (8002fcc <updateMeasurements+0x2fc>)
 8002d46:	6858      	ldr	r0, [r3, #4]
 8002d48:	f001 fba4 	bl	8004494 <__aeabi_fmul>
 8002d4c:	f8d4 71ac 	ldr.w	r7, [r4, #428]	; 0x1ac
 8002d50:	4601      	mov	r1, r0
 8002d52:	4681      	mov	r9, r0
 8002d54:	4638      	mov	r0, r7
 8002d56:	f001 fb9d 	bl	8004494 <__aeabi_fmul>
 8002d5a:	499d      	ldr	r1, [pc, #628]	; (8002fd0 <updateMeasurements+0x300>)
 8002d5c:	4680      	mov	r8, r0
 8002d5e:	f001 fbba 	bl	80044d6 <__aeabi_fcmpgt>
 8002d62:	2800      	cmp	r0, #0
 8002d64:	f000 815b 	beq.w	800301e <updateMeasurements+0x34e>
 8002d68:	f04f 517e 	mov.w	r1, #1065353216	; 0x3f800000
 8002d6c:	4640      	mov	r0, r8
 8002d6e:	f001 fba7 	bl	80044c0 <__aeabi_fcmplt>
 8002d72:	2800      	cmp	r0, #0
 8002d74:	f000 8153 	beq.w	800301e <updateMeasurements+0x34e>
 8002d78:	4996      	ldr	r1, [pc, #600]	; (8002fd4 <updateMeasurements+0x304>)
 8002d7a:	4648      	mov	r0, r9
 8002d7c:	f001 fb8a 	bl	8004494 <__aeabi_fmul>
 8002d80:	f001 fbbc 	bl	80044fc <log10f>
 8002d84:	4994      	ldr	r1, [pc, #592]	; (8002fd8 <updateMeasurements+0x308>)
 8002d86:	f001 fb87 	bl	8004498 <__aeabi_fdiv>
 8002d8a:	4601      	mov	r1, r0
 8002d8c:	4640      	mov	r0, r8
 8002d8e:	f001 fbbf 	bl	8004510 <powf>
 8002d92:	4992      	ldr	r1, [pc, #584]	; (8002fdc <updateMeasurements+0x30c>)
 8002d94:	f001 fb7e 	bl	8004494 <__aeabi_fmul>
 8002d98:	f04f 517e 	mov.w	r1, #1065353216	; 0x3f800000
 8002d9c:	f001 fb76 	bl	800448c <__aeabi_fadd>
 8002da0:	4607      	mov	r7, r0
 8002da2:	f04f 517e 	mov.w	r1, #1065353216	; 0x3f800000
 8002da6:	4640      	mov	r0, r8
 8002da8:	f001 fb95 	bl	80044d6 <__aeabi_fcmpgt>
 8002dac:	b128      	cbz	r0, 8002dba <updateMeasurements+0xea>
 8002dae:	498b      	ldr	r1, [pc, #556]	; (8002fdc <updateMeasurements+0x30c>)
 8002db0:	4638      	mov	r0, r7
 8002db2:	f001 fb90 	bl	80044d6 <__aeabi_fcmpgt>
 8002db6:	b100      	cbz	r0, 8002dba <updateMeasurements+0xea>
 8002db8:	4f88      	ldr	r7, [pc, #544]	; (8002fdc <updateMeasurements+0x30c>)
 8002dba:	4638      	mov	r0, r7
 8002dbc:	f001 fb77 	bl	80044ae <__aeabi_f2uiz>
 8002dc0:	f04f 0900 	mov.w	r9, #0
 8002dc4:	9007      	str	r0, [sp, #28]
 8002dc6:	487f      	ldr	r0, [pc, #508]	; (8002fc4 <updateMeasurements+0x2f4>)
 8002dc8:	46b2      	mov	sl, r6
 8002dca:	f04f 0c01 	mov.w	ip, #1
 8002dce:	46c8      	mov	r8, r9
 8002dd0:	4607      	mov	r7, r0
 8002dd2:	6a63      	ldr	r3, [r4, #36]	; 0x24
 8002dd4:	f8d4 e1a8 	ldr.w	lr, [r4, #424]	; 0x1a8
 8002dd8:	9304      	str	r3, [sp, #16]
 8002dda:	68e3      	ldr	r3, [r4, #12]
 8002ddc:	9305      	str	r3, [sp, #20]
 8002dde:	6a23      	ldr	r3, [r4, #32]
 8002de0:	9306      	str	r3, [sp, #24]
 8002de2:	9b04      	ldr	r3, [sp, #16]
 8002de4:	eba3 030c 	sub.w	r3, r3, ip
 8002de8:	f003 031f 	and.w	r3, r3, #31
 8002dec:	9301      	str	r3, [sp, #4]
 8002dee:	230c      	movs	r3, #12
 8002df0:	9a01      	ldr	r2, [sp, #4]
 8002df2:	fb03 0b02 	mla	fp, r3, r2, r0
 8002df6:	f44f 737a 	mov.w	r3, #1000	; 0x3e8
 8002dfa:	f8db 1028 	ldr.w	r1, [fp, #40]	; 0x28
 8002dfe:	9a05      	ldr	r2, [sp, #20]
 8002e00:	1a52      	subs	r2, r2, r1
 8002e02:	fbb2 f2f3 	udiv	r2, r2, r3
 8002e06:	1c53      	adds	r3, r2, #1
 8002e08:	9302      	str	r3, [sp, #8]
 8002e0a:	9a02      	ldr	r2, [sp, #8]
 8002e0c:	9b07      	ldr	r3, [sp, #28]
 8002e0e:	429a      	cmp	r2, r3
 8002e10:	f240 8111 	bls.w	8003036 <updateMeasurements+0x366>
 8002e14:	f1b9 0f00 	cmp.w	r9, #0
 8002e18:	d001      	beq.n	8002e1e <updateMeasurements+0x14e>
 8002e1a:	f8c0 e1a8 	str.w	lr, [r0, #424]	; 0x1a8
 8002e1e:	4651      	mov	r1, sl
 8002e20:	9b01      	ldr	r3, [sp, #4]
 8002e22:	3301      	adds	r3, #1
 8002e24:	f003 031f 	and.w	r3, r3, #31
 8002e28:	623b      	str	r3, [r7, #32]
 8002e2a:	4a6d      	ldr	r2, [pc, #436]	; (8002fe0 <updateMeasurements+0x310>)
 8002e2c:	1a71      	subs	r1, r6, r1
 8002e2e:	4640      	mov	r0, r8
 8002e30:	f7ff fe88 	bl	8002b44 <calculateRate>
 8002e34:	f1b8 0f0a 	cmp.w	r8, #10
 8002e38:	d909      	bls.n	8002e4e <updateMeasurements+0x17e>
 8002e3a:	f8d7 81ac 	ldr.w	r8, [r7, #428]	; 0x1ac
 8002e3e:	f8d7 11b4 	ldr.w	r1, [r7, #436]	; 0x1b4
 8002e42:	4640      	mov	r0, r8
 8002e44:	f001 fb47 	bl	80044d6 <__aeabi_fcmpgt>
 8002e48:	b108      	cbz	r0, 8002e4e <updateMeasurements+0x17e>
 8002e4a:	f8c7 81b4 	str.w	r8, [r7, #436]	; 0x1b4
 8002e4e:	4f5d      	ldr	r7, [pc, #372]	; (8002fc4 <updateMeasurements+0x2f4>)
 8002e50:	f8d7 31d4 	ldr.w	r3, [r7, #468]	; 0x1d4
 8002e54:	3301      	adds	r3, #1
 8002e56:	d036      	beq.n	8002ec6 <updateMeasurements+0x1f6>
 8002e58:	f8d7 31d0 	ldr.w	r3, [r7, #464]	; 0x1d0
 8002e5c:	1c59      	adds	r1, r3, #1
 8002e5e:	d032      	beq.n	8002ec6 <updateMeasurements+0x1f6>
 8002e60:	b19d      	cbz	r5, 8002e8a <updateMeasurements+0x1ba>
 8002e62:	b913      	cbnz	r3, 8002e6a <updateMeasurements+0x19a>
 8002e64:	9b03      	ldr	r3, [sp, #12]
 8002e66:	f8c7 31c8 	str.w	r3, [r7, #456]	; 0x1c8
 8002e6a:	4629      	mov	r1, r5
 8002e6c:	485d      	ldr	r0, [pc, #372]	; (8002fe4 <updateMeasurements+0x314>)
 8002e6e:	f8c7 61cc 	str.w	r6, [r7, #460]	; 0x1cc
 8002e72:	f7fd fc14 	bl	800069e <addClamped>
 8002e76:	f8d7 11cc 	ldr.w	r1, [r7, #460]	; 0x1cc
 8002e7a:	f8d7 31c8 	ldr.w	r3, [r7, #456]	; 0x1c8
 8002e7e:	4a5a      	ldr	r2, [pc, #360]	; (8002fe8 <updateMeasurements+0x318>)
 8002e80:	1ac9      	subs	r1, r1, r3
 8002e82:	f8d7 01d0 	ldr.w	r0, [r7, #464]	; 0x1d0
 8002e86:	f7ff fe5d 	bl	8002b44 <calculateRate>
 8002e8a:	f8d7 31d4 	ldr.w	r3, [r7, #468]	; 0x1d4
 8002e8e:	1c5a      	adds	r2, r3, #1
 8002e90:	d006      	beq.n	8002ea0 <updateMeasurements+0x1d0>
 8002e92:	f8d7 21d0 	ldr.w	r2, [r7, #464]	; 0x1d0
 8002e96:	3201      	adds	r2, #1
 8002e98:	bf1c      	itt	ne
 8002e9a:	3301      	addne	r3, #1
 8002e9c:	f8c7 31d4 	strne.w	r3, [r7, #468]	; 0x1d4
 8002ea0:	4b52      	ldr	r3, [pc, #328]	; (8002fec <updateMeasurements+0x31c>)
 8002ea2:	4953      	ldr	r1, [pc, #332]	; (8002ff0 <updateMeasurements+0x320>)
 8002ea4:	781b      	ldrb	r3, [r3, #0]
 8002ea6:	f8d7 21d4 	ldr.w	r2, [r7, #468]	; 0x1d4
 8002eaa:	f3c3 03c2 	ubfx	r3, r3, #3, #3
 8002eae:	f851 3023 	ldr.w	r3, [r1, r3, lsl #2]
 8002eb2:	429a      	cmp	r2, r3
 8002eb4:	d807      	bhi.n	8002ec6 <updateMeasurements+0x1f6>
 8002eb6:	4b4f      	ldr	r3, [pc, #316]	; (8002ff4 <updateMeasurements+0x324>)
 8002eb8:	e913 0007 	ldmdb	r3, {r0, r1, r2}
 8002ebc:	e883 0007 	stmia.w	r3, {r0, r1, r2}
 8002ec0:	d101      	bne.n	8002ec6 <updateMeasurements+0x1f6>
 8002ec2:	f7ff f857 	bl	8001f74 <triggerAlarm>
 8002ec6:	f8d7 31fc 	ldr.w	r3, [r7, #508]	; 0x1fc
 8002eca:	3301      	adds	r3, #1
 8002ecc:	d00b      	beq.n	8002ee6 <updateMeasurements+0x216>
 8002ece:	f8d7 3200 	ldr.w	r3, [r7, #512]	; 0x200
 8002ed2:	3301      	adds	r3, #1
 8002ed4:	d007      	beq.n	8002ee6 <updateMeasurements+0x216>
 8002ed6:	2101      	movs	r1, #1
 8002ed8:	4847      	ldr	r0, [pc, #284]	; (8002ff8 <updateMeasurements+0x328>)
 8002eda:	f7fd fbe0 	bl	800069e <addClamped>
 8002ede:	4629      	mov	r1, r5
 8002ee0:	4846      	ldr	r0, [pc, #280]	; (8002ffc <updateMeasurements+0x32c>)
 8002ee2:	f7fd fbdc 	bl	800069e <addClamped>
 8002ee6:	f8d7 3210 	ldr.w	r3, [r7, #528]	; 0x210
 8002eea:	3301      	adds	r3, #1
 8002eec:	d00b      	beq.n	8002f06 <updateMeasurements+0x236>
 8002eee:	f8d7 3214 	ldr.w	r3, [r7, #532]	; 0x214
 8002ef2:	3301      	adds	r3, #1
 8002ef4:	d007      	beq.n	8002f06 <updateMeasurements+0x236>
 8002ef6:	2101      	movs	r1, #1
 8002ef8:	4841      	ldr	r0, [pc, #260]	; (8003000 <updateMeasurements+0x330>)
 8002efa:	f7fd fbd0 	bl	800069e <addClamped>
 8002efe:	4629      	mov	r1, r5
 8002f00:	4840      	ldr	r0, [pc, #256]	; (8003004 <updateMeasurements+0x334>)
 8002f02:	f7fd fbcc 	bl	800069e <addClamped>
 8002f06:	2600      	movs	r6, #0
 8002f08:	f8d7 33a8 	ldr.w	r3, [r7, #936]	; 0x3a8
 8002f0c:	f04f 0900 	mov.w	r9, #0
 8002f10:	3301      	adds	r3, #1
 8002f12:	f5b3 7f34 	cmp.w	r3, #720	; 0x2d0
 8002f16:	bf88      	it	hi
 8002f18:	4633      	movhi	r3, r6
 8002f1a:	4d2a      	ldr	r5, [pc, #168]	; (8002fc4 <updateMeasurements+0x2f4>)
 8002f1c:	f8c7 33a8 	str.w	r3, [r7, #936]	; 0x3a8
 8002f20:	f8df 80ec 	ldr.w	r8, [pc, #236]	; 8003010 <updateMeasurements+0x340>
 8002f24:	4f38      	ldr	r7, [pc, #224]	; (8003008 <updateMeasurements+0x338>)
 8002f26:	f8d4 11ac 	ldr.w	r1, [r4, #428]	; 0x1ac
 8002f2a:	f8d5 0218 	ldr.w	r0, [r5, #536]	; 0x218
 8002f2e:	f001 faad 	bl	800448c <__aeabi_fadd>
 8002f32:	f8c5 0218 	str.w	r0, [r5, #536]	; 0x218
 8002f36:	4683      	mov	fp, r0
 8002f38:	f8d5 021c 	ldr.w	r0, [r5, #540]	; 0x21c
 8002f3c:	4b33      	ldr	r3, [pc, #204]	; (800300c <updateMeasurements+0x33c>)
 8002f3e:	3001      	adds	r0, #1
 8002f40:	f8c5 021c 	str.w	r0, [r5, #540]	; 0x21c
 8002f44:	eb03 03c6 	add.w	r3, r3, r6, lsl #3
 8002f48:	889b      	ldrh	r3, [r3, #4]
 8002f4a:	f8d4 23a8 	ldr.w	r2, [r4, #936]	; 0x3a8
 8002f4e:	fbb2 faf3 	udiv	sl, r2, r3
 8002f52:	fb03 2a1a 	mls	sl, r3, sl, r2
 8002f56:	f1ba 0f00 	cmp.w	sl, #0
 8002f5a:	d125      	bne.n	8002fa8 <updateMeasurements+0x2d8>
 8002f5c:	f001 fa9e 	bl	800449c <__aeabi_ui2f>
 8002f60:	4601      	mov	r1, r0
 8002f62:	4658      	mov	r0, fp
 8002f64:	f001 fa98 	bl	8004498 <__aeabi_fdiv>
 8002f68:	4639      	mov	r1, r7
 8002f6a:	f001 fa95 	bl	8004498 <__aeabi_fdiv>
 8002f6e:	f001 fac5 	bl	80044fc <log10f>
 8002f72:	4641      	mov	r1, r8
 8002f74:	f001 fa8e 	bl	8004494 <__aeabi_fmul>
 8002f78:	f001 fa92 	bl	80044a0 <__aeabi_f2iz>
 8002f7c:	2284      	movs	r2, #132	; 0x84
 8002f7e:	fb02 4206 	mla	r2, r2, r6, r4
 8002f82:	f8b5 3220 	ldrh.w	r3, [r5, #544]	; 0x220
 8002f86:	f380 0008 	usat	r0, #8, r0
 8002f8a:	441a      	add	r2, r3
 8002f8c:	3301      	adds	r3, #1
 8002f8e:	b29b      	uxth	r3, r3
 8002f90:	2b77      	cmp	r3, #119	; 0x77
 8002f92:	f882 0222 	strb.w	r0, [r2, #546]	; 0x222
 8002f96:	f8c5 9218 	str.w	r9, [r5, #536]	; 0x218
 8002f9a:	f8c5 a21c 	str.w	sl, [r5, #540]	; 0x21c
 8002f9e:	bf94      	ite	ls
 8002fa0:	f8a5 3220 	strhls.w	r3, [r5, #544]	; 0x220
 8002fa4:	f8a5 a220 	strhhi.w	sl, [r5, #544]	; 0x220
 8002fa8:	3601      	adds	r6, #1
 8002faa:	2e03      	cmp	r6, #3
 8002fac:	f105 0584 	add.w	r5, r5, #132	; 0x84
 8002fb0:	d1b9      	bne.n	8002f26 <updateMeasurements+0x256>
 8002fb2:	f7ff fcd9 	bl	8002968 <isInstantaneousRateAlarm>
 8002fb6:	bb68      	cbnz	r0, 8003014 <updateMeasurements+0x344>
 8002fb8:	f7ff fcf8 	bl	80029ac <isDoseAlarm>
 8002fbc:	2800      	cmp	r0, #0
 8002fbe:	d059      	beq.n	8003074 <updateMeasurements+0x3a4>
 8002fc0:	e028      	b.n	8003014 <updateMeasurements+0x344>
 8002fc2:	bf00      	nop
 8002fc4:	20000328 	andcs	r0, r0, r8, lsr #6
 8002fc8:	2000000c 	andcs	r0, r0, ip
 8002fcc:	49742400 	ldmdbmi	r4!, {sl, sp}^
 8002fd0:	3e99999a 			; <UNDEFINED> instruction: 0x3e99999a
 8002fd4:	413fffff 	teqmi	pc, pc	; <illegal shifter operand>	; <UNPREDICTABLE>
 8002fd8:	bf05db61 	svclt	0x0005db61
 8002fdc:	40a00000 	adcmi	r0, r0, r0
 8002fe0:	200004d0 	ldrdcs	r0, [r0], -r0	; <UNPREDICTABLE>
 8002fe4:	200004f8 	strdcs	r0, [r0], -r8
 8002fe8:	200004fc 	strdcs	r0, [r0], -ip
 8002fec:	20000da0 	andcs	r0, r0, r0, lsr #27
 8002ff0:	08007040 	stmdaeq	r0, {r6, ip, sp, lr}
 8002ff4:	20000508 	andcs	r0, r0, r8, lsl #10
 8002ff8:	20000524 	andcs	r0, r0, r4, lsr #10
 8002ffc:	20000528 	andcs	r0, r0, r8, lsr #10
 8003000:	20000538 	andcs	r0, r0, r8, lsr r5
 8003004:	2000053c 	andcs	r0, r0, ip, lsr r5
 8003008:	3ca3d70a 	stccc	7, cr13, [r3], #40	; 0x28
 800300c:	080070a8 	stmdaeq	r0, {r3, r5, r7, ip, sp, lr}
 8003010:	42200000 	eormi	r0, r0, #0
 8003014:	b009      	add	sp, #36	; 0x24
 8003016:	e8bd 4ff0 	ldmia.w	sp!, {r4, r5, r6, r7, r8, r9, sl, fp, lr}
 800301a:	f7fe bfab 	b.w	8001f74 <triggerAlarm>
 800301e:	2100      	movs	r1, #0
 8003020:	4638      	mov	r0, r7
 8003022:	f001 fa46 	bl	80044b2 <__aeabi_fcmpeq>
 8003026:	b920      	cbnz	r0, 8003032 <updateMeasurements+0x362>
 8003028:	4639      	mov	r1, r7
 800302a:	4814      	ldr	r0, [pc, #80]	; (800307c <updateMeasurements+0x3ac>)
 800302c:	f001 fa34 	bl	8004498 <__aeabi_fdiv>
 8003030:	e6b2      	b.n	8002d98 <updateMeasurements+0xc8>
 8003032:	4f13      	ldr	r7, [pc, #76]	; (8003080 <updateMeasurements+0x3b0>)
 8003034:	e6b5      	b.n	8002da2 <updateMeasurements+0xd2>
 8003036:	9b06      	ldr	r3, [sp, #24]
 8003038:	9a01      	ldr	r2, [sp, #4]
 800303a:	f8db e030 	ldr.w	lr, [fp, #48]	; 0x30
 800303e:	4293      	cmp	r3, r2
 8003040:	44f0      	add	r8, lr
 8003042:	d103      	bne.n	800304c <updateMeasurements+0x37c>
 8003044:	9b02      	ldr	r3, [sp, #8]
 8003046:	f8c0 31a8 	str.w	r3, [r0, #424]	; 0x1a8
 800304a:	e6ee      	b.n	8002e2a <updateMeasurements+0x15a>
 800304c:	f10c 0c01 	add.w	ip, ip, #1
 8003050:	f1bc 0f20 	cmp.w	ip, #32
 8003054:	468a      	mov	sl, r1
 8003056:	f8dd e008 	ldr.w	lr, [sp, #8]
 800305a:	f04f 0901 	mov.w	r9, #1
 800305e:	f47f aec0 	bne.w	8002de2 <updateMeasurements+0x112>
 8003062:	f8c0 e1a8 	str.w	lr, [r0, #424]	; 0x1a8
 8003066:	e6e0      	b.n	8002e2a <updateMeasurements+0x15a>
 8003068:	f8d4 31a8 	ldr.w	r3, [r4, #424]	; 0x1a8
 800306c:	3301      	adds	r3, #1
 800306e:	f8c4 31a8 	str.w	r3, [r4, #424]	; 0x1a8
 8003072:	e6ec      	b.n	8002e4e <updateMeasurements+0x17e>
 8003074:	b009      	add	sp, #36	; 0x24
 8003076:	e8bd 8ff0 	ldmia.w	sp!, {r4, r5, r6, r7, r8, r9, sl, fp, pc}
 800307a:	bf00      	nop
 800307c:	41900000 	orrsmi	r0, r0, r0
 8003080:	43960000 	orrsmi	r0, r6, #0

08003084 <setMeasurementView>:
 8003084:	b510      	push	{r4, lr}
 8003086:	4c08      	ldr	r4, [pc, #32]	; (80030a8 <setMeasurementView+0x24>)
 8003088:	2800      	cmp	r0, #0
 800308a:	bfa8      	it	ge
 800308c:	f8c4 03ac 	strge.w	r0, [r4, #940]	; 0x3ac
 8003090:	2000      	movs	r0, #0
 8003092:	f7ff fb41 	bl	8002718 <setKeyboardMode>
 8003096:	f8d4 23ac 	ldr.w	r2, [r4, #940]	; 0x3ac
 800309a:	4b04      	ldr	r3, [pc, #16]	; (80030ac <setMeasurementView+0x28>)
 800309c:	e8bd 4010 	ldmia.w	sp!, {r4, lr}
 80030a0:	f853 0022 	ldr.w	r0, [r3, r2, lsl #2]
 80030a4:	f002 b8f0 	b.w	8005288 <setView>
 80030a8:	20000328 	andcs	r0, r0, r8, lsr #6
 80030ac:	080070d0 	stmdaeq	r0, {r4, r6, r7, ip, sp, lr}

080030b0 <onMeasurementEvent.isra.5>:
 80030b0:	2802      	cmp	r0, #2
 80030b2:	b508      	push	{r3, lr}
 80030b4:	d00a      	beq.n	80030cc <onMeasurementEvent.isra.5+0x1c>
 80030b6:	2803      	cmp	r0, #3
 80030b8:	d016      	beq.n	80030e8 <onMeasurementEvent.isra.5+0x38>
 80030ba:	2801      	cmp	r0, #1
 80030bc:	d11c      	bne.n	80030f8 <onMeasurementEvent.isra.5+0x48>
 80030be:	f7ff fb2b 	bl	8002718 <setKeyboardMode>
 80030c2:	e8bd 4008 	ldmia.w	sp!, {r3, lr}
 80030c6:	480d      	ldr	r0, [pc, #52]	; (80030fc <onMeasurementEvent.isra.5+0x4c>)
 80030c8:	f002 b8de 	b.w	8005288 <setView>
 80030cc:	4b0c      	ldr	r3, [pc, #48]	; (8003100 <onMeasurementEvent.isra.5+0x50>)
 80030ce:	f8d3 23ac 	ldr.w	r2, [r3, #940]	; 0x3ac
 80030d2:	3a01      	subs	r2, #1
 80030d4:	bf48      	it	mi
 80030d6:	2203      	movmi	r2, #3
 80030d8:	f8c3 23ac 	str.w	r2, [r3, #940]	; 0x3ac
 80030dc:	f8d3 03ac 	ldr.w	r0, [r3, #940]	; 0x3ac
 80030e0:	e8bd 4008 	ldmia.w	sp!, {r3, lr}
 80030e4:	f7ff bfce 	b.w	8003084 <setMeasurementView>
 80030e8:	4b05      	ldr	r3, [pc, #20]	; (8003100 <onMeasurementEvent.isra.5+0x50>)
 80030ea:	f8d3 23ac 	ldr.w	r2, [r3, #940]	; 0x3ac
 80030ee:	3201      	adds	r2, #1
 80030f0:	2a03      	cmp	r2, #3
 80030f2:	bfc8      	it	gt
 80030f4:	2200      	movgt	r2, #0
 80030f6:	e7ef      	b.n	80030d8 <onMeasurementEvent.isra.5+0x28>
 80030f8:	bd08      	pop	{r3, pc}
 80030fa:	bf00      	nop
 80030fc:	0800753c 	stmdaeq	r0, {r2, r3, r4, r5, r8, sl, ip, sp, lr}
 8003100:	20000328 	andcs	r0, r0, r8, lsr #6

08003104 <onInstantaneousRateViewEvent>:
 8003104:	e92d 4ff0 	stmdb	sp!, {r4, r5, r6, r7, r8, r9, sl, fp, lr}
 8003108:	460c      	mov	r4, r1
 800310a:	b0a1      	sub	sp, #132	; 0x84
 800310c:	4608      	mov	r0, r1
 800310e:	f7ff ffcf 	bl	80030b0 <onMeasurementEvent.isra.5>
 8003112:	2c04      	cmp	r4, #4
 8003114:	d017      	beq.n	8003146 <onInstantaneousRateViewEvent+0x42>
 8003116:	2c06      	cmp	r4, #6
 8003118:	d01c      	beq.n	8003154 <onInstantaneousRateViewEvent+0x50>
 800311a:	b98c      	cbnz	r4, 8003140 <onInstantaneousRateViewEvent+0x3c>
 800311c:	4b43      	ldr	r3, [pc, #268]	; (800322c <onInstantaneousRateViewEvent+0x128>)
 800311e:	f893 21b8 	ldrb.w	r2, [r3, #440]	; 0x1b8
 8003122:	f082 0201 	eor.w	r2, r2, #1
 8003126:	f883 21b8 	strb.w	r2, [r3, #440]	; 0x1b8
 800312a:	b13a      	cbz	r2, 800313c <onInstantaneousRateViewEvent+0x38>
 800312c:	f503 74de 	add.w	r4, r3, #444	; 0x1bc
 8003130:	f503 73d4 	add.w	r3, r3, #424	; 0x1a8
 8003134:	e893 0007 	ldmia.w	r3, {r0, r1, r2}
 8003138:	e884 0007 	stmia.w	r4, {r0, r1, r2}
 800313c:	f002 f8ac 	bl	8005298 <updateView>
 8003140:	b021      	add	sp, #132	; 0x84
 8003142:	e8bd 8ff0 	ldmia.w	sp!, {r4, r5, r6, r7, r8, r9, sl, fp, pc}
 8003146:	f44f 72d4 	mov.w	r2, #424	; 0x1a8
 800314a:	2100      	movs	r1, #0
 800314c:	4838      	ldr	r0, [pc, #224]	; (8003230 <onInstantaneousRateViewEvent+0x12c>)
 800314e:	f002 ff6e 	bl	800602e <memset>
 8003152:	e7f3      	b.n	800313c <onInstantaneousRateViewEvent+0x38>
 8003154:	4c35      	ldr	r4, [pc, #212]	; (800322c <onInstantaneousRateViewEvent+0x128>)
 8003156:	f894 31b8 	ldrb.w	r3, [r4, #440]	; 0x1b8
 800315a:	2b00      	cmp	r3, #0
 800315c:	d056      	beq.n	800320c <onInstantaneousRateViewEvent+0x108>
 800315e:	f8d4 51bc 	ldr.w	r5, [r4, #444]	; 0x1bc
 8003162:	f8d4 21c0 	ldr.w	r2, [r4, #448]	; 0x1c0
 8003166:	f8d4 81c4 	ldr.w	r8, [r4, #452]	; 0x1c4
 800316a:	f04f 0b18 	mov.w	fp, #24
 800316e:	4b31      	ldr	r3, [pc, #196]	; (8003234 <onInstantaneousRateViewEvent+0x130>)
 8003170:	f8df a0dc 	ldr.w	sl, [pc, #220]	; 8003250 <onInstantaneousRateViewEvent+0x14c>
 8003174:	781b      	ldrb	r3, [r3, #0]
 8003176:	eb0d 010b 	add.w	r1, sp, fp
 800317a:	f3c3 0341 	ubfx	r3, r3, #1, #2
 800317e:	fb0b a303 	mla	r3, fp, r3, sl
 8003182:	a810      	add	r0, sp, #64	; 0x40
 8003184:	ae08      	add	r6, sp, #32
 8003186:	f7ff fbc3 	bl	8002910 <buildValueString>
 800318a:	492b      	ldr	r1, [pc, #172]	; (8003238 <onInstantaneousRateViewEvent+0x134>)
 800318c:	4630      	mov	r0, r6
 800318e:	f002 ff65 	bl	800605c <strcpy>
 8003192:	af18      	add	r7, sp, #96	; 0x60
 8003194:	4629      	mov	r1, r5
 8003196:	4630      	mov	r0, r6
 8003198:	f7fd fcc2 	bl	8000b20 <strcatTime>
 800319c:	ad0c      	add	r5, sp, #48	; 0x30
 800319e:	4926      	ldr	r1, [pc, #152]	; (8003238 <onInstantaneousRateViewEvent+0x134>)
 80031a0:	4638      	mov	r0, r7
 80031a2:	f002 ff5b 	bl	800605c <strcpy>
 80031a6:	4924      	ldr	r1, [pc, #144]	; (8003238 <onInstantaneousRateViewEvent+0x134>)
 80031a8:	4628      	mov	r0, r5
 80031aa:	f002 ff57 	bl	800605c <strcpy>
 80031ae:	f894 31b8 	ldrb.w	r3, [r4, #440]	; 0x1b8
 80031b2:	bb93      	cbnz	r3, 800321a <onInstantaneousRateViewEvent+0x116>
 80031b4:	f7ff fbd8 	bl	8002968 <isInstantaneousRateAlarm>
 80031b8:	4681      	mov	r9, r0
 80031ba:	bb88      	cbnz	r0, 8003220 <onInstantaneousRateViewEvent+0x11c>
 80031bc:	f8d4 41b4 	ldr.w	r4, [r4, #436]	; 0x1b4
 80031c0:	2100      	movs	r1, #0
 80031c2:	4620      	mov	r0, r4
 80031c4:	f001 f987 	bl	80044d6 <__aeabi_fcmpgt>
 80031c8:	b368      	cbz	r0, 8003226 <onInstantaneousRateViewEvent+0x122>
 80031ca:	4b1a      	ldr	r3, [pc, #104]	; (8003234 <onInstantaneousRateViewEvent+0x130>)
 80031cc:	4622      	mov	r2, r4
 80031ce:	781b      	ldrb	r3, [r3, #0]
 80031d0:	a907      	add	r1, sp, #28
 80031d2:	f3c3 0341 	ubfx	r3, r3, #1, #2
 80031d6:	fb0b a303 	mla	r3, fp, r3, sl
 80031da:	4638      	mov	r0, r7
 80031dc:	f7ff fb98 	bl	8002910 <buildValueString>
 80031e0:	4916      	ldr	r1, [pc, #88]	; (800323c <onInstantaneousRateViewEvent+0x138>)
 80031e2:	4628      	mov	r0, r5
 80031e4:	f002 ff3a 	bl	800605c <strcpy>
 80031e8:	9907      	ldr	r1, [sp, #28]
 80031ea:	4628      	mov	r0, r5
 80031ec:	f002 ff27 	bl	800603e <strcat>
 80031f0:	4648      	mov	r0, r9
 80031f2:	4b13      	ldr	r3, [pc, #76]	; (8003240 <onInstantaneousRateViewEvent+0x13c>)
 80031f4:	e9cd 5003 	strd	r5, r0, [sp, #12]
 80031f8:	e9cd 3701 	strd	r3, r7, [sp, #4]
 80031fc:	9600      	str	r6, [sp, #0]
 80031fe:	4643      	mov	r3, r8
 8003200:	9a06      	ldr	r2, [sp, #24]
 8003202:	a910      	add	r1, sp, #64	; 0x40
 8003204:	480f      	ldr	r0, [pc, #60]	; (8003244 <onInstantaneousRateViewEvent+0x140>)
 8003206:	f7fe fa4d 	bl	80016a4 <drawMeasurement>
 800320a:	e799      	b.n	8003140 <onInstantaneousRateViewEvent+0x3c>
 800320c:	f8d4 51a8 	ldr.w	r5, [r4, #424]	; 0x1a8
 8003210:	f8d4 21ac 	ldr.w	r2, [r4, #428]	; 0x1ac
 8003214:	f8d4 81b0 	ldr.w	r8, [r4, #432]	; 0x1b0
 8003218:	e7a7      	b.n	800316a <onInstantaneousRateViewEvent+0x66>
 800321a:	2002      	movs	r0, #2
 800321c:	4b0a      	ldr	r3, [pc, #40]	; (8003248 <onInstantaneousRateViewEvent+0x144>)
 800321e:	e7e9      	b.n	80031f4 <onInstantaneousRateViewEvent+0xf0>
 8003220:	2001      	movs	r0, #1
 8003222:	4b0a      	ldr	r3, [pc, #40]	; (800324c <onInstantaneousRateViewEvent+0x148>)
 8003224:	e7e6      	b.n	80031f4 <onInstantaneousRateViewEvent+0xf0>
 8003226:	4b04      	ldr	r3, [pc, #16]	; (8003238 <onInstantaneousRateViewEvent+0x134>)
 8003228:	e7e4      	b.n	80031f4 <onInstantaneousRateViewEvent+0xf0>
 800322a:	bf00      	nop
 800322c:	20000328 	andcs	r0, r0, r8, lsr #6
 8003230:	20000348 	andcs	r0, r0, r8, asr #6
 8003234:	20000da0 	andcs	r0, r0, r0, lsr #27
 8003238:	080062da 	stmdaeq	r0, {r1, r3, r4, r6, r7, r9, sp, lr}
 800323c:	08006506 	stmdaeq	r0, {r1, r2, r8, sl, sp, lr}
 8003240:	08007116 	stmdaeq	r0, {r1, r2, r4, r8, ip, sp, lr}
 8003244:	0800711a 	stmdaeq	r0, {r1, r3, r4, r8, ip, sp, lr}
 8003248:	08007106 	stmdaeq	r0, {r1, r2, r8, ip, sp, lr}
 800324c:	0800710b 	stmdaeq	r0, {r0, r1, r3, r8, ip, sp, lr}
 8003250:	2000000c 	andcs	r0, r0, ip

08003254 <onAverageRateViewEvent>:
 8003254:	e92d 41f0 	stmdb	sp!, {r4, r5, r6, r7, r8, lr}
 8003258:	460c      	mov	r4, r1
 800325a:	b094      	sub	sp, #80	; 0x50
 800325c:	4608      	mov	r0, r1
 800325e:	f7ff ff27 	bl	80030b0 <onMeasurementEvent.isra.5>
 8003262:	2c04      	cmp	r4, #4
 8003264:	d021      	beq.n	80032aa <onAverageRateViewEvent+0x56>
 8003266:	2c06      	cmp	r4, #6
 8003268:	d025      	beq.n	80032b6 <onAverageRateViewEvent+0x62>
 800326a:	b9dc      	cbnz	r4, 80032a4 <onAverageRateViewEvent+0x50>
 800326c:	4a3a      	ldr	r2, [pc, #232]	; (8003358 <onAverageRateViewEvent+0x104>)
 800326e:	f892 31ec 	ldrb.w	r3, [r2, #492]	; 0x1ec
 8003272:	b953      	cbnz	r3, 800328a <onAverageRateViewEvent+0x36>
 8003274:	4939      	ldr	r1, [pc, #228]	; (800335c <onAverageRateViewEvent+0x108>)
 8003276:	4c3a      	ldr	r4, [pc, #232]	; (8003360 <onAverageRateViewEvent+0x10c>)
 8003278:	7809      	ldrb	r1, [r1, #0]
 800327a:	f8d2 01d4 	ldr.w	r0, [r2, #468]	; 0x1d4
 800327e:	f3c1 01c2 	ubfx	r1, r1, #3, #3
 8003282:	f854 1021 	ldr.w	r1, [r4, r1, lsl #2]
 8003286:	4288      	cmp	r0, r1
 8003288:	d20c      	bcs.n	80032a4 <onAverageRateViewEvent+0x50>
 800328a:	f083 0301 	eor.w	r3, r3, #1
 800328e:	f882 31ec 	strb.w	r3, [r2, #492]	; 0x1ec
 8003292:	b12b      	cbz	r3, 80032a0 <onAverageRateViewEvent+0x4c>
 8003294:	4b33      	ldr	r3, [pc, #204]	; (8003364 <onAverageRateViewEvent+0x110>)
 8003296:	f1a3 021c 	sub.w	r2, r3, #28
 800329a:	ca07      	ldmia	r2, {r0, r1, r2}
 800329c:	e883 0007 	stmia.w	r3, {r0, r1, r2}
 80032a0:	f001 fffa 	bl	8005298 <updateView>
 80032a4:	b014      	add	sp, #80	; 0x50
 80032a6:	e8bd 81f0 	ldmia.w	sp!, {r4, r5, r6, r7, r8, pc}
 80032aa:	2234      	movs	r2, #52	; 0x34
 80032ac:	2100      	movs	r1, #0
 80032ae:	482e      	ldr	r0, [pc, #184]	; (8003368 <onAverageRateViewEvent+0x114>)
 80032b0:	f002 febd 	bl	800602e <memset>
 80032b4:	e7f4      	b.n	80032a0 <onAverageRateViewEvent+0x4c>
 80032b6:	4c28      	ldr	r4, [pc, #160]	; (8003358 <onAverageRateViewEvent+0x104>)
 80032b8:	f894 31ec 	ldrb.w	r3, [r4, #492]	; 0x1ec
 80032bc:	2b00      	cmp	r3, #0
 80032be:	d03e      	beq.n	800333e <onAverageRateViewEvent+0xea>
 80032c0:	f8d4 71f0 	ldr.w	r7, [r4, #496]	; 0x1f0
 80032c4:	f8d4 81f4 	ldr.w	r8, [r4, #500]	; 0x1f4
 80032c8:	f8d4 61f8 	ldr.w	r6, [r4, #504]	; 0x1f8
 80032cc:	ad08      	add	r5, sp, #32
 80032ce:	4927      	ldr	r1, [pc, #156]	; (800336c <onAverageRateViewEvent+0x118>)
 80032d0:	4628      	mov	r0, r5
 80032d2:	f002 fec3 	bl	800605c <strcpy>
 80032d6:	4639      	mov	r1, r7
 80032d8:	4628      	mov	r0, r5
 80032da:	f7fd fc21 	bl	8000b20 <strcatTime>
 80032de:	2218      	movs	r2, #24
 80032e0:	4f1e      	ldr	r7, [pc, #120]	; (800335c <onAverageRateViewEvent+0x108>)
 80032e2:	4b23      	ldr	r3, [pc, #140]	; (8003370 <onAverageRateViewEvent+0x11c>)
 80032e4:	7839      	ldrb	r1, [r7, #0]
 80032e6:	a80c      	add	r0, sp, #48	; 0x30
 80032e8:	f3c1 0141 	ubfx	r1, r1, #1, #2
 80032ec:	fb02 3301 	mla	r3, r2, r1, r3
 80032f0:	4642      	mov	r2, r8
 80032f2:	a907      	add	r1, sp, #28
 80032f4:	f7ff fb0c 	bl	8002910 <buildValueString>
 80032f8:	f894 31ec 	ldrb.w	r3, [r4, #492]	; 0x1ec
 80032fc:	4a1b      	ldr	r2, [pc, #108]	; (800336c <onAverageRateViewEvent+0x118>)
 80032fe:	bb2b      	cbnz	r3, 800334c <onAverageRateViewEvent+0xf8>
 8003300:	783b      	ldrb	r3, [r7, #0]
 8003302:	4817      	ldr	r0, [pc, #92]	; (8003360 <onAverageRateViewEvent+0x10c>)
 8003304:	f3c3 03c2 	ubfx	r3, r3, #3, #3
 8003308:	f8d4 11d4 	ldr.w	r1, [r4, #468]	; 0x1d4
 800330c:	f850 3023 	ldr.w	r3, [r0, r3, lsl #2]
 8003310:	4299      	cmp	r1, r3
 8003312:	d21e      	bcs.n	8003352 <onAverageRateViewEvent+0xfe>
 8003314:	f8d4 31d0 	ldr.w	r3, [r4, #464]	; 0x1d0
 8003318:	3301      	adds	r3, #1
 800331a:	bf18      	it	ne
 800331c:	2100      	movne	r1, #0
 800331e:	4b15      	ldr	r3, [pc, #84]	; (8003374 <onAverageRateViewEvent+0x120>)
 8003320:	bf0c      	ite	eq
 8003322:	2102      	moveq	r1, #2
 8003324:	4613      	movne	r3, r2
 8003326:	e9cd 2103 	strd	r2, r1, [sp, #12]
 800332a:	e9cd 3201 	strd	r3, r2, [sp, #4]
 800332e:	9500      	str	r5, [sp, #0]
 8003330:	4633      	mov	r3, r6
 8003332:	9a07      	ldr	r2, [sp, #28]
 8003334:	a90c      	add	r1, sp, #48	; 0x30
 8003336:	4810      	ldr	r0, [pc, #64]	; (8003378 <onAverageRateViewEvent+0x124>)
 8003338:	f7fe f9b4 	bl	80016a4 <drawMeasurement>
 800333c:	e7b2      	b.n	80032a4 <onAverageRateViewEvent+0x50>
 800333e:	f8d4 71e0 	ldr.w	r7, [r4, #480]	; 0x1e0
 8003342:	f8d4 81e4 	ldr.w	r8, [r4, #484]	; 0x1e4
 8003346:	f8d4 61e8 	ldr.w	r6, [r4, #488]	; 0x1e8
 800334a:	e7bf      	b.n	80032cc <onAverageRateViewEvent+0x78>
 800334c:	2102      	movs	r1, #2
 800334e:	4b0b      	ldr	r3, [pc, #44]	; (800337c <onAverageRateViewEvent+0x128>)
 8003350:	e7e9      	b.n	8003326 <onAverageRateViewEvent+0xd2>
 8003352:	2102      	movs	r1, #2
 8003354:	4b0a      	ldr	r3, [pc, #40]	; (8003380 <onAverageRateViewEvent+0x12c>)
 8003356:	e7e6      	b.n	8003326 <onAverageRateViewEvent+0xd2>
 8003358:	20000328 	andcs	r0, r0, r8, lsr #6
 800335c:	20000da0 	andcs	r0, r0, r0, lsr #27
 8003360:	08007040 	stmdaeq	r0, {r6, ip, sp, lr}
 8003364:	20000518 	andcs	r0, r0, r8, lsl r5
 8003368:	200004f0 	strdcs	r0, [r0], -r0	; <UNPREDICTABLE>
 800336c:	080062da 	stmdaeq	r0, {r1, r3, r4, r6, r7, r9, sp, lr}
 8003370:	2000000c 	andcs	r0, r0, ip
 8003374:	080070e5 	stmdaeq	r0, {r0, r2, r5, r6, r7, ip, sp, lr}
 8003378:	080070ee 	stmdaeq	r0, {r1, r2, r3, r5, r6, r7, ip, sp, lr}
 800337c:	08007106 	stmdaeq	r0, {r1, r2, r8, ip, sp, lr}
 8003380:	080070e0 	stmdaeq	r0, {r5, r6, r7, ip, sp, lr}

08003384 <onDoseViewEvent>:
 8003384:	b5f0      	push	{r4, r5, r6, r7, lr}
 8003386:	460c      	mov	r4, r1
 8003388:	b095      	sub	sp, #84	; 0x54
 800338a:	4608      	mov	r0, r1
 800338c:	f7ff fe90 	bl	80030b0 <onMeasurementEvent.isra.5>
 8003390:	2c04      	cmp	r4, #4
 8003392:	d016      	beq.n	80033c2 <onDoseViewEvent+0x3e>
 8003394:	2c06      	cmp	r4, #6
 8003396:	d01a      	beq.n	80033ce <onDoseViewEvent+0x4a>
 8003398:	b98c      	cbnz	r4, 80033be <onDoseViewEvent+0x3a>
 800339a:	4b31      	ldr	r3, [pc, #196]	; (8003460 <onDoseViewEvent+0xdc>)
 800339c:	f893 2204 	ldrb.w	r2, [r3, #516]	; 0x204
 80033a0:	f082 0201 	eor.w	r2, r2, #1
 80033a4:	f883 2204 	strb.w	r2, [r3, #516]	; 0x204
 80033a8:	b13a      	cbz	r2, 80033ba <onDoseViewEvent+0x36>
 80033aa:	f503 7202 	add.w	r2, r3, #520	; 0x208
 80033ae:	f503 73fe 	add.w	r3, r3, #508	; 0x1fc
 80033b2:	e893 0003 	ldmia.w	r3, {r0, r1}
 80033b6:	e882 0003 	stmia.w	r2, {r0, r1}
 80033ba:	f001 ff6d 	bl	8005298 <updateView>
 80033be:	b015      	add	sp, #84	; 0x54
 80033c0:	bdf0      	pop	{r4, r5, r6, r7, pc}
 80033c2:	2214      	movs	r2, #20
 80033c4:	2100      	movs	r1, #0
 80033c6:	4827      	ldr	r0, [pc, #156]	; (8003464 <onDoseViewEvent+0xe0>)
 80033c8:	f002 fe31 	bl	800602e <memset>
 80033cc:	e7f5      	b.n	80033ba <onDoseViewEvent+0x36>
 80033ce:	4c24      	ldr	r4, [pc, #144]	; (8003460 <onDoseViewEvent+0xdc>)
 80033d0:	f894 3204 	ldrb.w	r3, [r4, #516]	; 0x204
 80033d4:	2b00      	cmp	r3, #0
 80033d6:	d138      	bne.n	800344a <onDoseViewEvent+0xc6>
 80033d8:	f8d4 51fc 	ldr.w	r5, [r4, #508]	; 0x1fc
 80033dc:	f8d4 7200 	ldr.w	r7, [r4, #512]	; 0x200
 80033e0:	ae08      	add	r6, sp, #32
 80033e2:	4921      	ldr	r1, [pc, #132]	; (8003468 <onDoseViewEvent+0xe4>)
 80033e4:	4630      	mov	r0, r6
 80033e6:	f002 fe39 	bl	800605c <strcpy>
 80033ea:	4629      	mov	r1, r5
 80033ec:	4630      	mov	r0, r6
 80033ee:	f7fd fb97 	bl	8000b20 <strcatTime>
 80033f2:	2218      	movs	r2, #24
 80033f4:	4b1d      	ldr	r3, [pc, #116]	; (800346c <onDoseViewEvent+0xe8>)
 80033f6:	4638      	mov	r0, r7
 80033f8:	781d      	ldrb	r5, [r3, #0]
 80033fa:	4b1d      	ldr	r3, [pc, #116]	; (8003470 <onDoseViewEvent+0xec>)
 80033fc:	f3c5 0541 	ubfx	r5, r5, #1, #2
 8003400:	fb02 3505 	mla	r5, r2, r5, r3
 8003404:	f001 f84a 	bl	800449c <__aeabi_ui2f>
 8003408:	350c      	adds	r5, #12
 800340a:	462b      	mov	r3, r5
 800340c:	4602      	mov	r2, r0
 800340e:	a907      	add	r1, sp, #28
 8003410:	a80c      	add	r0, sp, #48	; 0x30
 8003412:	f7ff fa7d 	bl	8002910 <buildValueString>
 8003416:	f894 3204 	ldrb.w	r3, [r4, #516]	; 0x204
 800341a:	4c13      	ldr	r4, [pc, #76]	; (8003468 <onDoseViewEvent+0xe4>)
 800341c:	b9d3      	cbnz	r3, 8003454 <onDoseViewEvent+0xd0>
 800341e:	3701      	adds	r7, #1
 8003420:	d01b      	beq.n	800345a <onDoseViewEvent+0xd6>
 8003422:	f7ff fac3 	bl	80029ac <isDoseAlarm>
 8003426:	2800      	cmp	r0, #0
 8003428:	4b12      	ldr	r3, [pc, #72]	; (8003474 <onDoseViewEvent+0xf0>)
 800342a:	bf0a      	itet	eq
 800342c:	2200      	moveq	r2, #0
 800342e:	2201      	movne	r2, #1
 8003430:	4623      	moveq	r3, r4
 8003432:	e9cd 4203 	strd	r4, r2, [sp, #12]
 8003436:	e9cd 3401 	strd	r3, r4, [sp, #4]
 800343a:	9600      	str	r6, [sp, #0]
 800343c:	2300      	movs	r3, #0
 800343e:	9a07      	ldr	r2, [sp, #28]
 8003440:	a90c      	add	r1, sp, #48	; 0x30
 8003442:	480d      	ldr	r0, [pc, #52]	; (8003478 <onDoseViewEvent+0xf4>)
 8003444:	f7fe f92e 	bl	80016a4 <drawMeasurement>
 8003448:	e7b9      	b.n	80033be <onDoseViewEvent+0x3a>
 800344a:	f8d4 5208 	ldr.w	r5, [r4, #520]	; 0x208
 800344e:	f8d4 720c 	ldr.w	r7, [r4, #524]	; 0x20c
 8003452:	e7c5      	b.n	80033e0 <onDoseViewEvent+0x5c>
 8003454:	2202      	movs	r2, #2
 8003456:	4b09      	ldr	r3, [pc, #36]	; (800347c <onDoseViewEvent+0xf8>)
 8003458:	e7eb      	b.n	8003432 <onDoseViewEvent+0xae>
 800345a:	2202      	movs	r2, #2
 800345c:	4b08      	ldr	r3, [pc, #32]	; (8003480 <onDoseViewEvent+0xfc>)
 800345e:	e7e8      	b.n	8003432 <onDoseViewEvent+0xae>
 8003460:	20000328 	andcs	r0, r0, r8, lsr #6
 8003464:	20000524 	andcs	r0, r0, r4, lsr #10
 8003468:	080062da 	stmdaeq	r0, {r1, r3, r4, r6, r7, r9, sp, lr}
 800346c:	20000da0 	andcs	r0, r0, r0, lsr #27
 8003470:	2000000c 	andcs	r0, r0, ip
 8003474:	080070f6 	stmdaeq	r0, {r1, r2, r4, r5, r6, r7, ip, sp, lr}
 8003478:	08007101 	stmdaeq	r0, {r0, r8, ip, sp, lr}
 800347c:	08007106 	stmdaeq	r0, {r1, r2, r8, ip, sp, lr}
 8003480:	080070e5 	stmdaeq	r0, {r0, r2, r5, r6, r7, ip, sp, lr}

08003484 <onHistoryViewEvent>:
 8003484:	e92d 47f0 	stmdb	sp!, {r4, r5, r6, r7, r8, r9, sl, lr}
 8003488:	460c      	mov	r4, r1
 800348a:	b0a8      	sub	sp, #160	; 0xa0
 800348c:	4608      	mov	r0, r1
 800348e:	f7ff fe0f 	bl	80030b0 <onMeasurementEvent.isra.5>
 8003492:	2c04      	cmp	r4, #4
 8003494:	d010      	beq.n	80034b8 <onHistoryViewEvent+0x34>
 8003496:	2c06      	cmp	r4, #6
 8003498:	d01a      	beq.n	80034d0 <onHistoryViewEvent+0x4c>
 800349a:	b954      	cbnz	r4, 80034b2 <onHistoryViewEvent+0x2e>
 800349c:	4a52      	ldr	r2, [pc, #328]	; (80035e8 <onHistoryViewEvent+0x164>)
 800349e:	f8d2 33a4 	ldr.w	r3, [r2, #932]	; 0x3a4
 80034a2:	3301      	adds	r3, #1
 80034a4:	2b02      	cmp	r3, #2
 80034a6:	bf88      	it	hi
 80034a8:	4623      	movhi	r3, r4
 80034aa:	f8c2 33a4 	str.w	r3, [r2, #932]	; 0x3a4
 80034ae:	f001 fef3 	bl	8005298 <updateView>
 80034b2:	b028      	add	sp, #160	; 0xa0
 80034b4:	e8bd 87f0 	ldmia.w	sp!, {r4, r5, r6, r7, r8, r9, sl, pc}
 80034b8:	4c4b      	ldr	r4, [pc, #300]	; (80035e8 <onHistoryViewEvent+0x164>)
 80034ba:	f44f 72c6 	mov.w	r2, #396	; 0x18c
 80034be:	2100      	movs	r1, #0
 80034c0:	f504 7006 	add.w	r0, r4, #536	; 0x218
 80034c4:	f002 fdb3 	bl	800602e <memset>
 80034c8:	2300      	movs	r3, #0
 80034ca:	f8c4 33a8 	str.w	r3, [r4, #936]	; 0x3a8
 80034ce:	e7ee      	b.n	80034ae <onHistoryViewEvent+0x2a>
 80034d0:	2400      	movs	r4, #0
 80034d2:	2284      	movs	r2, #132	; 0x84
 80034d4:	26ff      	movs	r6, #255	; 0xff
 80034d6:	4623      	mov	r3, r4
 80034d8:	4d43      	ldr	r5, [pc, #268]	; (80035e8 <onHistoryViewEvent+0x164>)
 80034da:	f8d5 73a4 	ldr.w	r7, [r5, #932]	; 0x3a4
 80034de:	437a      	muls	r2, r7
 80034e0:	18d1      	adds	r1, r2, r3
 80034e2:	4429      	add	r1, r5
 80034e4:	f891 1222 	ldrb.w	r1, [r1, #546]	; 0x222
 80034e8:	b129      	cbz	r1, 80034f6 <onHistoryViewEvent+0x72>
 80034ea:	428c      	cmp	r4, r1
 80034ec:	bf38      	it	cc
 80034ee:	460c      	movcc	r4, r1
 80034f0:	428e      	cmp	r6, r1
 80034f2:	bf28      	it	cs
 80034f4:	460e      	movcs	r6, r1
 80034f6:	3301      	adds	r3, #1
 80034f8:	2b78      	cmp	r3, #120	; 0x78
 80034fa:	d1f1      	bne.n	80034e0 <onHistoryViewEvent+0x5c>
 80034fc:	2200      	movs	r2, #0
 80034fe:	e9cd 2202 	strd	r2, r2, [sp, #8]
 8003502:	e9cd 2204 	strd	r2, r2, [sp, #16]
 8003506:	e9cd 2206 	strd	r2, r2, [sp, #24]
 800350a:	e9cd 2208 	strd	r2, r2, [sp, #32]
 800350e:	2c00      	cmp	r4, #0
 8003510:	d067      	beq.n	80035e2 <onHistoryViewEvent+0x15e>
 8003512:	4b36      	ldr	r3, [pc, #216]	; (80035ec <onHistoryViewEvent+0x168>)
 8003514:	f8df 90e4 	ldr.w	r9, [pc, #228]	; 80035fc <onHistoryViewEvent+0x178>
 8003518:	f893 8000 	ldrb.w	r8, [r3]
 800351c:	4934      	ldr	r1, [pc, #208]	; (80035f0 <onHistoryViewEvent+0x16c>)
 800351e:	f3c8 0341 	ubfx	r3, r8, #1, #2
 8003522:	f04f 0818 	mov.w	r8, #24
 8003526:	fb08 f803 	mul.w	r8, r8, r3
 800352a:	eb09 0308 	add.w	r3, r9, r8
 800352e:	6858      	ldr	r0, [r3, #4]
 8003530:	f000 ffb0 	bl	8004494 <__aeabi_fmul>
 8003534:	f000 ffe2 	bl	80044fc <log10f>
 8003538:	f04f 4183 	mov.w	r1, #1098907648	; 0x41800000
 800353c:	f000 ffa6 	bl	800448c <__aeabi_fadd>
 8003540:	492c      	ldr	r1, [pc, #176]	; (80035f4 <onHistoryViewEvent+0x170>)
 8003542:	f000 ffa7 	bl	8004494 <__aeabi_fmul>
 8003546:	f000 ffb2 	bl	80044ae <__aeabi_f2uiz>
 800354a:	1901      	adds	r1, r0, r4
 800354c:	2428      	movs	r4, #40	; 0x28
 800354e:	1983      	adds	r3, r0, r6
 8003550:	fbb3 f3f4 	udiv	r3, r3, r4
 8003554:	fbb1 f1f4 	udiv	r1, r1, r4
 8003558:	435c      	muls	r4, r3
 800355a:	f1a3 0a10 	sub.w	sl, r3, #16
 800355e:	390f      	subs	r1, #15
 8003560:	1a24      	subs	r4, r4, r0
 8003562:	a806      	add	r0, sp, #24
 8003564:	eba1 060a 	sub.w	r6, r1, sl
 8003568:	f7fd fb96 	bl	8000c98 <strcatDecimalPowerWithMetricPrefix>
 800356c:	f859 1008 	ldr.w	r1, [r9, r8]
 8003570:	a806      	add	r0, sp, #24
 8003572:	f002 fd64 	bl	800603e <strcat>
 8003576:	4651      	mov	r1, sl
 8003578:	a802      	add	r0, sp, #8
 800357a:	f7fd fb8d 	bl	8000c98 <strcatDecimalPowerWithMetricPrefix>
 800357e:	f859 1008 	ldr.w	r1, [r9, r8]
 8003582:	a802      	add	r0, sp, #8
 8003584:	f002 fd5b 	bl	800603e <strcat>
 8003588:	2384      	movs	r3, #132	; 0x84
 800358a:	f04f 0c28 	mov.w	ip, #40	; 0x28
 800358e:	2000      	movs	r0, #0
 8003590:	fb03 5307 	mla	r3, r3, r7, r5
 8003594:	fb0c fc06 	mul.w	ip, ip, r6
 8003598:	f8b3 7220 	ldrh.w	r7, [r3, #544]	; 0x220
 800359c:	4619      	mov	r1, r3
 800359e:	3778      	adds	r7, #120	; 0x78
 80035a0:	ab0a      	add	r3, sp, #40	; 0x28
 80035a2:	183a      	adds	r2, r7, r0
 80035a4:	3a78      	subs	r2, #120	; 0x78
 80035a6:	2a77      	cmp	r2, #119	; 0x77
 80035a8:	d8fc      	bhi.n	80035a4 <onHistoryViewEvent+0x120>
 80035aa:	440a      	add	r2, r1
 80035ac:	f892 2222 	ldrb.w	r2, [r2, #546]	; 0x222
 80035b0:	b122      	cbz	r2, 80035bc <onHistoryViewEvent+0x138>
 80035b2:	1b12      	subs	r2, r2, r4
 80035b4:	ebc2 2202 	rsb	r2, r2, r2, lsl #8
 80035b8:	fbb2 f2fc 	udiv	r2, r2, ip
 80035bc:	541a      	strb	r2, [r3, r0]
 80035be:	3001      	adds	r0, #1
 80035c0:	2878      	cmp	r0, #120	; 0x78
 80035c2:	d1ee      	bne.n	80035a2 <onHistoryViewEvent+0x11e>
 80035c4:	f8d5 43a4 	ldr.w	r4, [r5, #932]	; 0x3a4
 80035c8:	480b      	ldr	r0, [pc, #44]	; (80035f8 <onHistoryViewEvent+0x174>)
 80035ca:	9601      	str	r6, [sp, #4]
 80035cc:	eb00 02c4 	add.w	r2, r0, r4, lsl #3
 80035d0:	7992      	ldrb	r2, [r2, #6]
 80035d2:	a906      	add	r1, sp, #24
 80035d4:	9200      	str	r2, [sp, #0]
 80035d6:	f850 0034 	ldr.w	r0, [r0, r4, lsl #3]
 80035da:	aa02      	add	r2, sp, #8
 80035dc:	f7fe f912 	bl	8001804 <drawHistory>
 80035e0:	e767      	b.n	80034b2 <onHistoryViewEvent+0x2e>
 80035e2:	2601      	movs	r6, #1
 80035e4:	e7d0      	b.n	8003588 <onHistoryViewEvent+0x104>
 80035e6:	bf00      	nop
 80035e8:	20000328 	andcs	r0, r0, r8, lsr #6
 80035ec:	20000da0 	andcs	r0, r0, r0, lsr #27
 80035f0:	3ca3d70a 	stccc	7, cr13, [r3], #40	; 0x28
 80035f4:	42200000 	eormi	r0, r0, #0
 80035f8:	080070a8 	stmdaeq	r0, {r3, r5, r7, ip, sp, lr}
 80035fc:	2000000c 	andcs	r0, r0, ip

08003600 <getInstantaneousRate>:
 8003600:	4b01      	ldr	r3, [pc, #4]	; (8003608 <getInstantaneousRate+0x8>)
 8003602:	f8d3 01ac 	ldr.w	r0, [r3, #428]	; 0x1ac
 8003606:	4770      	bx	lr
 8003608:	20000328 	andcs	r0, r0, r8, lsr #6

0800360c <setDoseTime>:
 800360c:	4b01      	ldr	r3, [pc, #4]	; (8003614 <setDoseTime+0x8>)
 800360e:	f8c3 01fc 	str.w	r0, [r3, #508]	; 0x1fc
 8003612:	4770      	bx	lr
 8003614:	20000328 	andcs	r0, r0, r8, lsr #6

08003618 <getDoseTime>:
 8003618:	4b01      	ldr	r3, [pc, #4]	; (8003620 <getDoseTime+0x8>)
 800361a:	f8d3 01fc 	ldr.w	r0, [r3, #508]	; 0x1fc
 800361e:	4770      	bx	lr
 8003620:	20000328 	andcs	r0, r0, r8, lsr #6

08003624 <setDosePulseCount>:
 8003624:	4b01      	ldr	r3, [pc, #4]	; (800362c <setDosePulseCount+0x8>)
 8003626:	f8c3 0200 	str.w	r0, [r3, #512]	; 0x200
 800362a:	4770      	bx	lr
 800362c:	20000328 	andcs	r0, r0, r8, lsr #6

08003630 <getDosePulseCount>:
 8003630:	4b01      	ldr	r3, [pc, #4]	; (8003638 <getDosePulseCount+0x8>)
 8003632:	f8d3 0200 	ldr.w	r0, [r3, #512]	; 0x200
 8003636:	4770      	bx	lr
 8003638:	20000328 	andcs	r0, r0, r8, lsr #6

0800363c <setTubeTime>:
 800363c:	4b01      	ldr	r3, [pc, #4]	; (8003644 <setTubeTime+0x8>)
 800363e:	f8c3 0210 	str.w	r0, [r3, #528]	; 0x210
 8003642:	4770      	bx	lr
 8003644:	20000328 	andcs	r0, r0, r8, lsr #6

08003648 <getTubeTime>:
 8003648:	4b01      	ldr	r3, [pc, #4]	; (8003650 <getTubeTime+0x8>)
 800364a:	f8d3 0210 	ldr.w	r0, [r3, #528]	; 0x210
 800364e:	4770      	bx	lr
 8003650:	20000328 	andcs	r0, r0, r8, lsr #6

08003654 <setTubePulseCount>:
 8003654:	4b01      	ldr	r3, [pc, #4]	; (800365c <setTubePulseCount+0x8>)
 8003656:	f8c3 0214 	str.w	r0, [r3, #532]	; 0x214
 800365a:	4770      	bx	lr
 800365c:	20000328 	andcs	r0, r0, r8, lsr #6

08003660 <getTubePulseCount>:
 8003660:	4b01      	ldr	r3, [pc, #4]	; (8003668 <getTubePulseCount+0x8>)
 8003662:	f8d3 0214 	ldr.w	r0, [r3, #532]	; 0x214
 8003666:	4770      	bx	lr
 8003668:	20000328 	andcs	r0, r0, r8, lsr #6

0800366c <selectMenuItem>:
 800366c:	b510      	push	{r4, lr}
 800366e:	4c07      	ldr	r4, [pc, #28]	; (800368c <selectMenuItem+0x20>)
 8003670:	6843      	ldr	r3, [r0, #4]
 8003672:	6824      	ldr	r4, [r4, #0]
 8003674:	b288      	uxth	r0, r1
 8003676:	428c      	cmp	r4, r1
 8003678:	8058      	strh	r0, [r3, #2]
 800367a:	d902      	bls.n	8003682 <selectMenuItem+0x16>
 800367c:	2200      	movs	r2, #0
 800367e:	801a      	strh	r2, [r3, #0]
 8003680:	e003      	b.n	800368a <selectMenuItem+0x1e>
 8003682:	1b12      	subs	r2, r2, r4
 8003684:	428a      	cmp	r2, r1
 8003686:	d9fa      	bls.n	800367e <selectMenuItem+0x12>
 8003688:	8018      	strh	r0, [r3, #0]
 800368a:	bd10      	pop	{r4, pc}
 800368c:	08006e54 	stmdaeq	r0, {r2, r4, r6, r9, sl, fp, sp, lr}

08003690 <onMenuEvent>:
 8003690:	b573      	push	{r0, r1, r4, r5, r6, lr}
 8003692:	6846      	ldr	r6, [r0, #4]
 8003694:	2906      	cmp	r1, #6
 8003696:	d809      	bhi.n	80036ac <onMenuEvent+0x1c>
 8003698:	e8df f001 	tbb	[pc, r1]
 800369c:	11110a04 	tstne	r1, r4, lsl #20
 80036a0:	00470808 	subeq	r0, r7, r8, lsl #16
 80036a4:	6933      	ldr	r3, [r6, #16]
 80036a6:	b10b      	cbz	r3, 80036ac <onMenuEvent+0x1c>
 80036a8:	4630      	mov	r0, r6
 80036aa:	4798      	blx	r3
 80036ac:	b002      	add	sp, #8
 80036ae:	bd70      	pop	{r4, r5, r6, pc}
 80036b0:	68f3      	ldr	r3, [r6, #12]
 80036b2:	b10b      	cbz	r3, 80036b8 <onMenuEvent+0x28>
 80036b4:	4630      	mov	r0, r6
 80036b6:	4798      	blx	r3
 80036b8:	f001 fdee 	bl	8005298 <updateView>
 80036bc:	e7f6      	b.n	80036ac <onMenuEvent+0x1c>
 80036be:	6875      	ldr	r5, [r6, #4]
 80036c0:	2902      	cmp	r1, #2
 80036c2:	886c      	ldrh	r4, [r5, #2]
 80036c4:	d11a      	bne.n	80036fc <onMenuEvent+0x6c>
 80036c6:	b14c      	cbz	r4, 80036dc <onMenuEvent+0x4c>
 80036c8:	3c01      	subs	r4, #1
 80036ca:	882b      	ldrh	r3, [r5, #0]
 80036cc:	b2a4      	uxth	r4, r4
 80036ce:	429c      	cmp	r4, r3
 80036d0:	806c      	strh	r4, [r5, #2]
 80036d2:	d2f1      	bcs.n	80036b8 <onMenuEvent+0x28>
 80036d4:	3b01      	subs	r3, #1
 80036d6:	802b      	strh	r3, [r5, #0]
 80036d8:	e7ee      	b.n	80036b8 <onMenuEvent+0x28>
 80036da:	3401      	adds	r4, #1
 80036dc:	68b3      	ldr	r3, [r6, #8]
 80036de:	aa01      	add	r2, sp, #4
 80036e0:	4621      	mov	r1, r4
 80036e2:	4630      	mov	r0, r6
 80036e4:	4798      	blx	r3
 80036e6:	2800      	cmp	r0, #0
 80036e8:	d1f7      	bne.n	80036da <onMenuEvent+0x4a>
 80036ea:	b2a3      	uxth	r3, r4
 80036ec:	1e5a      	subs	r2, r3, #1
 80036ee:	806a      	strh	r2, [r5, #2]
 80036f0:	4a10      	ldr	r2, [pc, #64]	; (8003734 <onMenuEvent+0xa4>)
 80036f2:	6812      	ldr	r2, [r2, #0]
 80036f4:	42a2      	cmp	r2, r4
 80036f6:	d216      	bcs.n	8003726 <onMenuEvent+0x96>
 80036f8:	1a9b      	subs	r3, r3, r2
 80036fa:	e7ec      	b.n	80036d6 <onMenuEvent+0x46>
 80036fc:	68b3      	ldr	r3, [r6, #8]
 80036fe:	aa01      	add	r2, sp, #4
 8003700:	1c61      	adds	r1, r4, #1
 8003702:	4630      	mov	r0, r6
 8003704:	4798      	blx	r3
 8003706:	b168      	cbz	r0, 8003724 <onMenuEvent+0x94>
 8003708:	4a0a      	ldr	r2, [pc, #40]	; (8003734 <onMenuEvent+0xa4>)
 800370a:	886b      	ldrh	r3, [r5, #2]
 800370c:	6812      	ldr	r2, [r2, #0]
 800370e:	8829      	ldrh	r1, [r5, #0]
 8003710:	3301      	adds	r3, #1
 8003712:	3a01      	subs	r2, #1
 8003714:	b29b      	uxth	r3, r3
 8003716:	440a      	add	r2, r1
 8003718:	4293      	cmp	r3, r2
 800371a:	806b      	strh	r3, [r5, #2]
 800371c:	d9cc      	bls.n	80036b8 <onMenuEvent+0x28>
 800371e:	3101      	adds	r1, #1
 8003720:	8029      	strh	r1, [r5, #0]
 8003722:	e7c9      	b.n	80036b8 <onMenuEvent+0x28>
 8003724:	8068      	strh	r0, [r5, #2]
 8003726:	8028      	strh	r0, [r5, #0]
 8003728:	e7c6      	b.n	80036b8 <onMenuEvent+0x28>
 800372a:	4630      	mov	r0, r6
 800372c:	f7fd ff26 	bl	800157c <drawMenu>
 8003730:	e7bc      	b.n	80036ac <onMenuEvent+0x1c>
 8003732:	bf00      	nop
 8003734:	08006e54 	stmdaeq	r0, {r2, r4, r6, r9, sl, fp, sp, lr}

08003738 <onPulseClicksMenuGetOption>:
 8003738:	4b05      	ldr	r3, [pc, #20]	; (8003750 <onPulseClicksMenuGetOption+0x18>)
 800373a:	79db      	ldrb	r3, [r3, #7]
 800373c:	f3c3 1380 	ubfx	r3, r3, #6, #1
 8003740:	1a58      	subs	r0, r3, r1
 8003742:	4243      	negs	r3, r0
 8003744:	4143      	adcs	r3, r0
 8003746:	6013      	str	r3, [r2, #0]
 8003748:	4b02      	ldr	r3, [pc, #8]	; (8003754 <onPulseClicksMenuGetOption+0x1c>)
 800374a:	f853 0021 	ldr.w	r0, [r3, r1, lsl #2]
 800374e:	4770      	bx	lr
 8003750:	20000da0 	andcs	r0, r0, r0, lsr #27
 8003754:	0800723c 	stmdaeq	r0, {r2, r3, r4, r5, r9, ip, sp, lr}

08003758 <onBatteryTypeMenuSelect>:
 8003758:	4b03      	ldr	r3, [pc, #12]	; (8003768 <onBatteryTypeMenuSelect+0x10>)
 800375a:	6841      	ldr	r1, [r0, #4]
 800375c:	79da      	ldrb	r2, [r3, #7]
 800375e:	8849      	ldrh	r1, [r1, #2]
 8003760:	f361 1286 	bfi	r2, r1, #6, #1
 8003764:	71da      	strb	r2, [r3, #7]
 8003766:	4770      	bx	lr
 8003768:	20000da0 	andcs	r0, r0, r0, lsr #27

0800376c <initPower>:
 800376c:	b508      	push	{r3, lr}
 800376e:	f001 f8ad 	bl	80048cc <initPowerController>
 8003772:	4b05      	ldr	r3, [pc, #20]	; (8003788 <initPower+0x1c>)
 8003774:	2202      	movs	r2, #2
 8003776:	79d9      	ldrb	r1, [r3, #7]
 8003778:	4804      	ldr	r0, [pc, #16]	; (800378c <initPower+0x20>)
 800377a:	f3c1 1180 	ubfx	r1, r1, #6, #1
 800377e:	e8bd 4008 	ldmia.w	sp!, {r3, lr}
 8003782:	f7ff bf73 	b.w	800366c <selectMenuItem>
 8003786:	bf00      	nop
 8003788:	20000da0 	andcs	r0, r0, r0, lsr #27
 800378c:	08007228 	stmdaeq	r0, {r3, r5, r9, ip, sp, lr}

08003790 <requestPowerOff>:
 8003790:	2201      	movs	r2, #1
 8003792:	4b01      	ldr	r3, [pc, #4]	; (8003798 <requestPowerOff+0x8>)
 8003794:	701a      	strb	r2, [r3, #0]
 8003796:	4770      	bx	lr
 8003798:	20000d9c 	mulcs	r0, ip, sp

0800379c <isPowerOffRequested>:
 800379c:	4b02      	ldr	r3, [pc, #8]	; (80037a8 <isPowerOffRequested+0xc>)
 800379e:	7818      	ldrb	r0, [r3, #0]
 80037a0:	b108      	cbz	r0, 80037a6 <isPowerOffRequested+0xa>
 80037a2:	2200      	movs	r2, #0
 80037a4:	701a      	strb	r2, [r3, #0]
 80037a6:	4770      	bx	lr
 80037a8:	20000d9c 	mulcs	r0, ip, sp

080037ac <getDeviceBatteryLevel>:
 80037ac:	b570      	push	{r4, r5, r6, lr}
 80037ae:	f001 f8c3 	bl	8004938 <isBatteryCharging>
 80037b2:	4604      	mov	r4, r0
 80037b4:	b9b8      	cbnz	r0, 80037e6 <getDeviceBatteryLevel+0x3a>
 80037b6:	2214      	movs	r2, #20
 80037b8:	4b0c      	ldr	r3, [pc, #48]	; (80037ec <getDeviceBatteryLevel+0x40>)
 80037ba:	79dd      	ldrb	r5, [r3, #7]
 80037bc:	4b0c      	ldr	r3, [pc, #48]	; (80037f0 <getDeviceBatteryLevel+0x44>)
 80037be:	f3c5 1580 	ubfx	r5, r5, #6, #1
 80037c2:	fb02 3505 	mla	r5, r2, r5, r3
 80037c6:	f000 fe13 	bl	80043f0 <getDeviceBatteryVoltage>
 80037ca:	4606      	mov	r6, r0
 80037cc:	4631      	mov	r1, r6
 80037ce:	f855 0024 	ldr.w	r0, [r5, r4, lsl #2]
 80037d2:	f000 fe80 	bl	80044d6 <__aeabi_fcmpgt>
 80037d6:	b108      	cbz	r0, 80037dc <getDeviceBatteryLevel+0x30>
 80037d8:	b260      	sxtb	r0, r4
 80037da:	bd70      	pop	{r4, r5, r6, pc}
 80037dc:	3401      	adds	r4, #1
 80037de:	2c05      	cmp	r4, #5
 80037e0:	d1f4      	bne.n	80037cc <getDeviceBatteryLevel+0x20>
 80037e2:	4620      	mov	r0, r4
 80037e4:	e7f9      	b.n	80037da <getDeviceBatteryLevel+0x2e>
 80037e6:	f04f 30ff 	mov.w	r0, #4294967295
 80037ea:	e7f6      	b.n	80037da <getDeviceBatteryLevel+0x2e>
 80037ec:	20000da0 	andcs	r0, r0, r0, lsr #27
 80037f0:	08007200 	stmdaeq	r0, {r9, ip, sp, lr}

080037f4 <dequeueBit>:
 80037f4:	4b0e      	ldr	r3, [pc, #56]	; (8003830 <dequeueBit+0x3c>)
 80037f6:	6819      	ldr	r1, [r3, #0]
 80037f8:	685a      	ldr	r2, [r3, #4]
 80037fa:	4291      	cmp	r1, r2
 80037fc:	d014      	beq.n	8003828 <dequeueBit+0x34>
 80037fe:	6859      	ldr	r1, [r3, #4]
 8003800:	685a      	ldr	r2, [r3, #4]
 8003802:	eb03 01d1 	add.w	r1, r3, r1, lsr #3
 8003806:	7a08      	ldrb	r0, [r1, #8]
 8003808:	f002 0107 	and.w	r1, r2, #7
 800380c:	2201      	movs	r2, #1
 800380e:	408a      	lsls	r2, r1
 8003810:	4210      	tst	r0, r2
 8003812:	685a      	ldr	r2, [r3, #4]
 8003814:	bf18      	it	ne
 8003816:	2001      	movne	r0, #1
 8003818:	f102 0201 	add.w	r2, r2, #1
 800381c:	f002 027f 	and.w	r2, r2, #127	; 0x7f
 8003820:	605a      	str	r2, [r3, #4]
 8003822:	bf08      	it	eq
 8003824:	2000      	moveq	r0, #0
 8003826:	4770      	bx	lr
 8003828:	f04f 30ff 	mov.w	r0, #4294967295
 800382c:	4770      	bx	lr
 800382e:	bf00      	nop
 8003830:	200006e4 	andcs	r0, r0, r4, ror #13

08003834 <onRNGMenuGetOption>:
 8003834:	2302      	movs	r3, #2
 8003836:	6013      	str	r3, [r2, #0]
 8003838:	4b01      	ldr	r3, [pc, #4]	; (8003840 <onRNGMenuGetOption+0xc>)
 800383a:	f853 0021 	ldr.w	r0, [r3, r1, lsl #2]
 800383e:	4770      	bx	lr
 8003840:	08007294 	stmdaeq	r0, {r2, r4, r7, r9, ip, sp, lr}

08003844 <onRNGMenuSelect>:
 8003844:	b538      	push	{r3, r4, r5, lr}
 8003846:	6843      	ldr	r3, [r0, #4]
 8003848:	4c0b      	ldr	r4, [pc, #44]	; (8003878 <onRNGMenuSelect+0x34>)
 800384a:	789b      	ldrb	r3, [r3, #2]
 800384c:	4a0b      	ldr	r2, [pc, #44]	; (800387c <onRNGMenuSelect+0x38>)
 800384e:	f884 3025 	strb.w	r3, [r4, #37]	; 0x25
 8003852:	5cd3      	ldrb	r3, [r2, r3]
 8003854:	2501      	movs	r5, #1
 8003856:	62a3      	str	r3, [r4, #40]	; 0x28
 8003858:	2300      	movs	r3, #0
 800385a:	f104 0034 	add.w	r0, r4, #52	; 0x34
 800385e:	4908      	ldr	r1, [pc, #32]	; (8003880 <onRNGMenuSelect+0x3c>)
 8003860:	e9c4 530b 	strd	r5, r3, [r4, #44]	; 0x2c
 8003864:	f002 fbfa 	bl	800605c <strcpy>
 8003868:	f884 5045 	strb.w	r5, [r4, #69]	; 0x45
 800386c:	4805      	ldr	r0, [pc, #20]	; (8003884 <onRNGMenuSelect+0x40>)
 800386e:	e8bd 4038 	ldmia.w	sp!, {r3, r4, r5, lr}
 8003872:	f001 bd09 	b.w	8005288 <setView>
 8003876:	bf00      	nop
 8003878:	200006e4 	andcs	r0, r0, r4, ror #13
 800387c:	080072c0 	stmdaeq	r0, {r6, r7, r9, ip, sp, lr}
 8003880:	080062da 	stmdaeq	r0, {r1, r3, r4, r6, r7, r9, sp, lr}
